
build/sun50iw1p1/debug/bl31/bl31.elf:     file format elf64-littleaarch64
build/sun50iw1p1/debug/bl31/bl31.elf
architecture: aarch64, flags 0x00000112:
EXEC_P, HAS_SYMS, D_PAGED
start address 0x0000000000000000

Program Header:
    LOAD off    0x0000000000000000 vaddr 0x0000000000040000 paddr 0x0000000000040000 align 2**16
         filesz 0x000000000000c008 memsz 0x0000000000013000 flags rwx
   STACK off    0x0000000000000000 vaddr 0x0000000000000000 paddr 0x0000000000000000 align 2**4
         filesz 0x0000000000000000 memsz 0x0000000000000000 flags rw-
private flags = 0:

Sections:
Idx Name          Size      VMA               LMA               File off  Algn
  0 ro            00008000  0000000000044000  0000000000044000  00004000  2**11
                  CONTENTS, ALLOC, LOAD, READONLY, CODE
  1 .data         00000008  000000000004c000  000000000004c000  0000c000  2**2
                  CONTENTS, ALLOC, LOAD, DATA
  2 stacks        00001000  000000000004c040  000000000004c040  0000c008  2**6
                  ALLOC
  3 .bss          00000e58  000000000004d040  000000000004d040  0000c008  2**6
                  ALLOC
  4 xlat_table    00004000  000000000004e000  000000000004e000  0000c008  2**12
                  ALLOC
  5 coherent_ram  00001000  0000000000052000  0000000000052000  0000c008  2**12
                  ALLOC
  6 .debug_info   0001368e  0000000000000000  0000000000000000  0000c008  2**0
                  CONTENTS, READONLY, DEBUGGING
  7 .debug_abbrev 0000462b  0000000000000000  0000000000000000  0001f696  2**0
                  CONTENTS, READONLY, DEBUGGING
  8 .debug_aranges 000017e0  0000000000000000  0000000000000000  00023cd0  2**4
                  CONTENTS, READONLY, DEBUGGING
  9 .debug_line   00005a2f  0000000000000000  0000000000000000  000254b0  2**0
                  CONTENTS, READONLY, DEBUGGING
 10 .debug_str    00002a17  0000000000000000  0000000000000000  0002aedf  2**0
                  CONTENTS, READONLY, DEBUGGING
 11 .comment      0000002d  0000000000000000  0000000000000000  0002d8f6  2**0
                  CONTENTS, READONLY
 12 .debug_loc    000174a5  0000000000000000  0000000000000000  0002d923  2**0
                  CONTENTS, READONLY, DEBUGGING
 13 .debug_ranges 00002840  0000000000000000  0000000000000000  00044dd0  2**4
                  CONTENTS, READONLY, DEBUGGING
 14 .debug_frame  00002490  0000000000000000  0000000000000000  00047610  2**3
                  CONTENTS, READONLY, DEBUGGING
SYMBOL TABLE:
0000000000044000 l    d  ro	0000000000000000 ro
000000000004c000 l    d  .data	0000000000000000 .data
000000000004c040 l    d  stacks	0000000000000000 stacks
000000000004d040 l    d  .bss	0000000000000000 .bss
000000000004e000 l    d  xlat_table	0000000000000000 xlat_table
0000000000052000 l    d  coherent_ram	0000000000000000 coherent_ram
0000000000000000 l    d  .debug_info	0000000000000000 .debug_info
0000000000000000 l    d  .debug_abbrev	0000000000000000 .debug_abbrev
0000000000000000 l    d  .debug_aranges	0000000000000000 .debug_aranges
0000000000000000 l    d  .debug_line	0000000000000000 .debug_line
0000000000000000 l    d  .debug_str	0000000000000000 .debug_str
0000000000000000 l    d  .comment	0000000000000000 .comment
0000000000000000 l    d  .debug_loc	0000000000000000 .debug_loc
0000000000000000 l    d  .debug_ranges	0000000000000000 .debug_ranges
0000000000000000 l    d  .debug_frame	0000000000000000 .debug_frame
0000000000000000 l    df *ABS*	0000000000000000 ./build/sun50iw1p1/debug/bl31/bl31_entrypoint.o
0000000000044018 l       ro	0000000000000000 code_start
0000000000000000 l    df *ABS*	0000000000000000 arm_gic.c
000000000004d040 l     O .bss	0000000000000004 g_gicc_base
000000000004d044 l     O .bss	0000000000000004 g_gicd_base
000000000004d048 l     O .bss	0000000000000008 g_gicr_base
000000000004d050 l     O .bss	0000000000000008 g_irq_sec_ptr
000000000004d058 l     O .bss	0000000000000004 g_num_irqs
000000000004928e l     O ro	0000000000000012 __func__.2154
00000000000492a0 l     O ro	0000000000000017 __func__.2163
00000000000492b7 l     O ro	0000000000000014 __func__.2171
00000000000492cb l     O ro	0000000000000019 __func__.2176
00000000000492e4 l     O ro	000000000000001a __func__.2182
00000000000492fe l     O ro	0000000000000015 __func__.2193
0000000000049313 l     O ro	000000000000000d __func__.2207
0000000000049320 l     O ro	0000000000000023 __func__.2220
0000000000000000 l    df *ABS*	0000000000000000 gic_v2.c
00000000000493b7 l     O ro	0000000000000014 __func__.1510
0000000000000000 l    df *ABS*	0000000000000000 gic_v3.c
0000000000000000 l    df *ABS*	0000000000000000 plat_gic.c
0000000000000000 l    df *ABS*	0000000000000000 bl31_sunxi_setup.c
000000000004d060 l     O .bss	0000000000000058 bl33_image_ep_info
00000000000494cb l     O ro	0000000000000021 __func__.1991
0000000000000000 l    df *ABS*	0000000000000000 plat_pm.c
0000000000044a34 l     F ro	0000000000000040 sunxi_system_reset
0000000000044a74 l     F ro	0000000000000030 sunxi_system_off
0000000000044aa4 l     F ro	000000000000000c sunxi_core_power_down_wfi
0000000000044ab0 l     F ro	000000000000009c sunxi_do_plat_actions
0000000000044b4c l     F ro	000000000000002c sunxi_affinst_off
0000000000044bac l     F ro	000000000000008c sunxi_affinst_suspend_finish
0000000000044c38 l     F ro	0000000000000048 sunxi_affinst_suspend
0000000000049644 l     O ro	0000000000000016 __func__.2110
00000000000496d0 l     O ro	0000000000000048 sunxi_ops
0000000000000000 l    df *ABS*	0000000000000000 sunxi_security.c
0000000000000000 l    df *ABS*	0000000000000000 sunxi_power.c
0000000000000000 l    df *ABS*	0000000000000000 sunxi_cpu_ops.c
00000000000451c0 l     F ro	0000000000000088 sun50i_power_switch_set.part.0
0000000000000000 l    df *ABS*	0000000000000000 plat_topology.c
0000000000000000 l    df *ABS*	0000000000000000 sunxi_clocks.c
0000000000000000 l    df *ABS*	0000000000000000 sunxi_sip_svc.c
00000000000499f4 l     O ro	0000000000000017 __func__.1326
0000000000049a3c l     O ro	0000000000000010 sunxi_sip_svc_uid
000000000004ab38 l     O ro	0000000000000020 __svc_desc_sunxi_sip_svc
0000000000000000 l    df *ABS*	0000000000000000 sunxi_common.c
0000000000000000 l    df *ABS*	0000000000000000 bl31_main.c
000000000004d0b8 l     O .bss	0000000000000008 bl32_init
000000000004c000 l     O .data	0000000000000004 next_image_type
0000000000049ad0 l     O ro	000000000000001e __func__.2152
0000000000000000 l    df *ABS*	0000000000000000 context_mgmt.c
0000000000045980 l     F ro	000000000000003c cm_get_context
00000000000459bc l     F ro	0000000000000040 cm_set_next_context
0000000000049c4c l     O ro	000000000000000f __func__.1937
0000000000049c5b l     O ro	0000000000000018 __func__.2127
0000000000049c73 l     O ro	0000000000000018 __func__.2133
0000000000049c8b l     O ro	0000000000000014 __func__.2138
0000000000049c9f l     O ro	0000000000000010 __func__.2149
0000000000049caf l     O ro	0000000000000014 __func__.2157
0000000000000000 l    df *ABS*	0000000000000000 runtime_svc.c
000000000004d0c0 l     O .bss	0000000000000008 rt_svc_descs
0000000000000000 l    df *ABS*	0000000000000000 interrupt_mgmt.c
000000000004d0c8 l     O .bss	0000000000000048 intr_type_descs
0000000000049d92 l     O ro	000000000000001f __func__.2068
0000000000000000 l    df *ABS*	0000000000000000 bl31_arch_setup.c
0000000000000000 l    df *ABS*	0000000000000000 bakery_lock.c
0000000000049dc7 l     O ro	0000000000000011 __func__.1830
0000000000049dd8 l     O ro	0000000000000010 __func__.1849
0000000000049de8 l     O ro	0000000000000014 __func__.1863
0000000000000000 l    df *ABS*	0000000000000000 std_svc_setup.c
0000000000046074 l     F ro	0000000000000004 std_svc_setup
0000000000049e9c l     O ro	0000000000000010 std_svc_uid
000000000004ab58 l     O ro	0000000000000020 __svc_desc_std_svc
0000000000000000 l    df *ABS*	0000000000000000 psci_afflvl_off.c
0000000000046128 l     F ro	0000000000000098 psci_afflvl2_off
00000000000461c0 l     F ro	0000000000000098 psci_afflvl1_off
0000000000046258 l     F ro	00000000000000bc psci_afflvl0_off
0000000000049eb4 l     O ro	0000000000000011 __func__.1933
0000000000049ec5 l     O ro	0000000000000011 __func__.1937
0000000000049ed6 l     O ro	0000000000000011 __func__.1941
0000000000049ee7 l     O ro	0000000000000010 __func__.1962
0000000000049f90 l     O ro	0000000000000018 psci_afflvl_off_handlers
0000000000000000 l    df *ABS*	0000000000000000 psci_afflvl_on.c
000000000004642c l     F ro	000000000000013c psci_afflvl0_on
0000000000046568 l     F ro	00000000000000d0 psci_afflvl0_on_finish
0000000000046638 l     F ro	00000000000000a8 psci_afflvl2_on
00000000000466e0 l     F ro	00000000000000a8 psci_afflvl1_on
0000000000046788 l     F ro	0000000000000080 psci_afflvl2_on_finish
0000000000046808 l     F ro	0000000000000080 psci_afflvl1_on_finish
0000000000049fa8 l     O ro	0000000000000016 __func__.2199
0000000000049fbe l     O ro	0000000000000010 __func__.2210
0000000000049fce l     O ro	0000000000000010 __func__.2218
0000000000049fde l     O ro	0000000000000010 __func__.2226
0000000000049fee l     O ro	0000000000000017 __func__.2258
000000000004a005 l     O ro	0000000000000017 __func__.2263
000000000004a01c l     O ro	0000000000000017 __func__.2268
000000000004a090 l     O ro	0000000000000018 psci_afflvl_on_handlers
0000000000000000 l    df *ABS*	0000000000000000 psci_afflvl_suspend.c
0000000000046974 l     F ro	000000000000008c psci_afflvl2_suspend_finish
0000000000046a00 l     F ro	000000000000008c psci_afflvl1_suspend_finish
0000000000046a8c l     F ro	00000000000000ac psci_afflvl2_suspend
0000000000046b38 l     F ro	00000000000000a4 psci_afflvl1_suspend
0000000000046bf4 l     F ro	0000000000000104 psci_afflvl0_suspend
0000000000046d10 l     F ro	0000000000000100 psci_afflvl0_suspend_finish
000000000004a0a8 l     O ro	0000000000000015 __func__.2205
000000000004a0bd l     O ro	0000000000000015 __func__.2214
000000000004a0d2 l     O ro	0000000000000015 __func__.2223
000000000004a0e7 l     O ro	0000000000000014 __func__.2250
000000000004a0fb l     O ro	000000000000001c __func__.2259
000000000004a117 l     O ro	000000000000001c __func__.2265
000000000004a133 l     O ro	000000000000001c __func__.2271
000000000004a1d8 l     O ro	0000000000000018 psci_afflvl_suspend_handlers
0000000000000000 l    df *ABS*	0000000000000000 psci_common.c
000000000004a1f4 l     O ro	000000000000001b __func__.2232
000000000004a20f l     O ro	000000000000000f __func__.2237
000000000004a21e l     O ro	0000000000000013 __func__.2244
000000000004a231 l     O ro	000000000000000f __func__.2301
000000000004a240 l     O ro	000000000000000f __func__.2306
000000000004a24f l     O ro	000000000000001c __func__.2338
000000000004a3b8 l     O ro	0000000000000020 psci_state_str.2347
0000000000000000 l    df *ABS*	0000000000000000 psci_main.c
000000000004a3ef l     O ro	0000000000000011 __func__.1991
000000000004a400 l     O ro	000000000000000d __func__.1999
0000000000000000 l    df *ABS*	0000000000000000 psci_setup.c
00000000000478c4 l     F ro	00000000000001e0 psci_init_aff_map
000000000004d110 l     O .bss	0000000000000018 psci_aff_limits
000000000004d130 l     O .bss	0000000000000840 psci_ns_context
000000000004a4bc l     O ro	0000000000000017 __func__.2181
000000000004a4d3 l     O ro	0000000000000012 __func__.2190
000000000004a4e5 l     O ro	000000000000000b __func__.2205
0000000000000000 l    df *ABS*	0000000000000000 psci_system_off.c
0000000000000000 l    df *ABS*	0000000000000000 tf_printf.c
0000000000047db0 l     F ro	0000000000000074 unsigned_num_print
0000000000000000 l    df *ABS*	0000000000000000 std.c
0000000000000000 l    df *ABS*	0000000000000000 xlat_tables.c
00000000000481ec l     F ro	00000000000001e8 init_xlation_table
000000000004e000 l     O xlat_table	0000000000004000 xlat_tables
000000000004d980 l     O .bss	0000000000000020 l1_xlation_table
000000000004d9a0 l     O .bss	0000000000000008 max_pa
000000000004d9a8 l     O .bss	0000000000000008 max_va
000000000004d9b0 l     O .bss	0000000000000220 mmap
000000000004dbd0 l     O .bss	0000000000000004 next_xlat
000000000004dbd8 l     O .bss	0000000000000008 tcr_ps_bits
000000000004a62d l     O ro	0000000000000010 __func__.1779
000000000004a63d l     O ro	0000000000000013 __func__.1812
000000000004a650 l     O ro	000000000000001d __func__.1822
000000000004a66d l     O ro	0000000000000011 __func__.1826
000000000004a67e l     O ro	000000000000000f __func__.1842
0000000000000000 l    df *ABS*	0000000000000000 plat_common.c
0000000000000000 l    df *ABS*	0000000000000000 uart.c
0000000000000000 l    df *ABS*	0000000000000000 ./build/sun50iw1p1/debug/bl31/cortex_a53.o
0000000000000000 l       *ABS*	0000000000000000 CPU_MIDR
0000000000000008 l       *ABS*	0000000000000000 CPU_PWR_DWN_CORE
0000000000000010 l       *ABS*	0000000000000000 CPU_PWR_DWN_CLUSTER
0000000000000018 l       *ABS*	0000000000000000 CPU_REG_DUMP
0000000000000020 l       *ABS*	0000000000000000 CPU_OPS_SIZE
00000000000487e4 l     F ro	0000000000000000 cortex_a53_disable_dcache
00000000000487f8 l     F ro	0000000000000000 cortex_a53_disable_smp
0000000000048810 l     F ro	0000000000000000 cortex_a53_core_pwr_dwn
0000000000048828 l     F ro	0000000000000000 cortex_a53_cluster_pwr_dwn
000000000004a79a l       ro	0000000000000000 cortex_a53_regs
0000000000048844 l     F ro	0000000000000000 cortex_a53_cpu_reg_dump
0000000000000000 l    df *ABS*	0000000000000000 ./build/sun50iw1p1/debug/bl31/platform_mp_stack.o
000000000004c040 l       stacks	0000000000000000 platform_normal_stacks
0000000000000000 l    df *ABS*	0000000000000000 ./build/sun50iw1p1/debug/bl31/plat_helpers.o
0000000000000000 l    df *ABS*	0000000000000000 ./build/sun50iw1p1/debug/bl31/context.o
0000000000000000 l    df *ABS*	0000000000000000 ./build/sun50iw1p1/debug/bl31/cpu_data.o
0000000000000000 l    df *ABS*	0000000000000000 ./build/sun50iw1p1/debug/bl31/runtime_exceptions.o
000000000004b000 l       ro	0000000000000000 sync_exception_sp_el0
000000000004b080 l       ro	0000000000000000 irq_sp_el0
000000000004b100 l       ro	0000000000000000 fiq_sp_el0
000000000004b180 l       ro	0000000000000000 serror_sp_el0
000000000004b200 l       ro	0000000000000000 sync_exception_sp_elx
000000000004b280 l       ro	0000000000000000 irq_sp_elx
000000000004b300 l       ro	0000000000000000 fiq_sp_elx
000000000004b380 l       ro	0000000000000000 serror_sp_elx
000000000004b400 l       ro	0000000000000000 sync_exception_aarch64
000000000004899c l       ro	0000000000000000 smc_handler32
00000000000489b4 l       ro	0000000000000000 smc_handler64
000000000004b480 l       ro	0000000000000000 irq_aarch64
0000000000048a74 l     F ro	0000000000000000 save_gp_registers
000000000004b4d8 l       ro	0000000000000000 interrupt_exit_irq_aarch64
000000000004b4dc l       ro	0000000000000000 interrupt_error_irq_aarch64
000000000004b500 l       ro	0000000000000000 fiq_aarch64
000000000004b558 l       ro	0000000000000000 interrupt_exit_fiq_aarch64
000000000004b55c l       ro	0000000000000000 interrupt_error_fiq_aarch64
000000000004b580 l       ro	0000000000000000 serror_aarch64
000000000004b600 l       ro	0000000000000000 sync_exception_aarch32
000000000004b680 l       ro	0000000000000000 irq_aarch32
000000000004b6d8 l       ro	0000000000000000 interrupt_exit_irq_aarch32
000000000004b6dc l       ro	0000000000000000 interrupt_error_irq_aarch32
000000000004b700 l       ro	0000000000000000 fiq_aarch32
000000000004b758 l       ro	0000000000000000 interrupt_exit_fiq_aarch32
000000000004b75c l       ro	0000000000000000 interrupt_error_fiq_aarch32
000000000004b780 l       ro	0000000000000000 serror_aarch32
000000000004899c l     F ro	0000000000000000 smc_handler
0000000000048a60 l       ro	0000000000000000 smc_prohibited
0000000000048a58 l       ro	0000000000000000 smc_unknown
0000000000048a6c l       ro	0000000000000000 rt_svc_fw_critical_error
0000000000048abc l     F ro	0000000000000000 restore_gp_registers_eret
0000000000048ac4 l       ro	0000000000000000 restore_gp_registers_callee_eret
0000000000000000 l    df *ABS*	0000000000000000 ./build/sun50iw1p1/debug/bl31/crash_reporting.o
000000000004a7a8 l       ro	0000000000000000 gic_regs
000000000004a7c7 l       ro	0000000000000000 gicd_pend_reg
000000000004a803 l       ro	0000000000000000 newline
000000000004a805 l       ro	0000000000000000 spacer
000000000004a80b l       ro	0000000000000000 print_spacer
000000000004a812 l       ro	0000000000000000 gp_regs
000000000004a881 l       ro	0000000000000000 el3_sys_regs
000000000004a8de l       ro	0000000000000000 non_el3_sys_regs
000000000004aa44 l       ro	0000000000000000 panic_msg
000000000004aa5d l       ro	0000000000000000 excpt_msg
000000000004aa83 l       ro	0000000000000000 intr_excpt_msg
0000000000048b04 l     F ro	0000000000000000 print_newline
0000000000048b0c l     F ro	0000000000000000 size_controlled_print
0000000000048b14 l       ro	0000000000000000 test_size_list
0000000000048b50 l       ro	0000000000000000 exit_size_print
0000000000048b58 l     F ro	0000000000000000 str_in_crash_buf_print
0000000000048bec l     F ro	0000000000000000 do_crash_reporting
0000000000048d9c l     F ro	0000000000000000 crash_panic
0000000000048d98 l       ro	0000000000000000 exit_print_gic_regs
0000000000048d6c l       ro	0000000000000000 gicd_ispendr_loop
0000000000000000 l    df *ABS*	0000000000000000 ./build/sun50iw1p1/debug/bl31/cpu_helpers.o
0000000000000000 l       *ABS*	0000000000000000 CPU_MIDR
0000000000000008 l       *ABS*	0000000000000000 CPU_PWR_DWN_CORE
0000000000000010 l       *ABS*	0000000000000000 CPU_PWR_DWN_CLUSTER
0000000000000018 l       *ABS*	0000000000000000 CPU_REG_DUMP
0000000000000020 l       *ABS*	0000000000000000 CPU_OPS_SIZE
0000000000048e74 l       ro	0000000000000000 error_exit
0000000000000000 l    df *ABS*	0000000000000000 ./build/sun50iw1p1/debug/bl31/psci_entry.o
0000000000048e84 l       ro	0000000000000000 psci_aff_common_finish_entry
0000000000048ee0 l       ro	0000000000000000 wfi_spill
0000000000000000 l    df *ABS*	0000000000000000 ./build/sun50iw1p1/debug/bl31/psci_helpers.o
0000000000048f24 l       ro	0000000000000000 do_core_pwr_dwn
0000000000048f28 l       ro	0000000000000000 do_stack_maintenance
0000000000000000 l    df *ABS*	0000000000000000 ./build/sun50iw1p1/debug/bl31/debug.o
000000000004aaf7 l       ro	0000000000000000 assert_msg1
000000000004ab05 l       ro	0000000000000000 assert_msg2
0000000000048fe8 l       ro	0000000000000000 _assert_loop
0000000000048fd0 l       ro	0000000000000000 dec_print_loop
000000000004ab0c l       ro	0000000000000000 panic_msg
000000000004904c l       ro	0000000000000000 panic_common
000000000004906c l       ro	0000000000000000 _panic_loop
0000000000000000 l    df *ABS*	0000000000000000 ./build/sun50iw1p1/debug/bl31/cache_helpers.o
000000000004908c l       ro	0000000000000000 flush_loop
00000000000490c0 l       ro	0000000000000000 inv_loop
00000000000490d8 l     F ro	0000000000000000 do_dcsw_op
0000000000049154 l       ro	0000000000000000 exit
0000000000049158 l       ro	0000000000000000 dcsw_loop_table
00000000000490f0 l       ro	0000000000000000 loop1
000000000004913c l       ro	0000000000000000 level_done
0000000000049158 l       ro	0000000000000000 loop2_isw
000000000004915c l       ro	0000000000000000 loop3_isw
0000000000049178 l       ro	0000000000000000 loop2_cisw
000000000004917c l       ro	0000000000000000 loop3_cisw
0000000000049198 l       ro	0000000000000000 loop2_csw
000000000004919c l       ro	0000000000000000 loop3_csw
0000000000000000 l    df *ABS*	0000000000000000 ./build/sun50iw1p1/debug/bl31/misc_helpers.o
0000000000049220 l       ro	0000000000000000 z_loop16
0000000000049234 l       ro	0000000000000000 z_loop1
0000000000049244 l       ro	0000000000000000 z_end
0000000000000000 l    df *ABS*	0000000000000000 ./build/sun50iw1p1/debug/bl31/platform_helpers.o
0000000000000000 l    df *ABS*	0000000000000000 
0000000000000000 l    df *ABS*	0000000000000000 cpu_data_array.c
0000000000048194 g     F ro	000000000000002c putchar
0000000000045bac g     F ro	00000000000000c4 cm_prepare_el3_exit
0000000000044754  w    F ro	0000000000000004 plat_ic_get_pending_interrupt_type
0000000000053000 g       coherent_ram	0000000000000000 __BL31_END__
0000000000045634 g     F ro	000000000000002c sunxi_sip_handler
0000000000047624 g     F ro	00000000000000d8 psci_cpu_suspend
0000000000047058 g     F ro	000000000000004c psci_acquire_afflvl_locks
0000000000053000 g       coherent_ram	0000000000000000 __COHERENT_RAM_END__
000000000004927a g     O ro	0000000000000014 version_string
000000000004a1c0 g     O ro	0000000000000018 psci_afflvl_suspend_finishers
0000000000044b78 g     F ro	0000000000000034 sunxi_affinst_on_finish
0000000000048980 g     F ro	0000000000000000 _cpu_data_by_mpidr
0000000000048f94 g     F ro	0000000000000000 asm_assert
0000000000044758 g     F ro	0000000000000054 bl31_plat_get_next_image_ep_info
0000000000046e10 g     F ro	0000000000000138 psci_afflvl_suspend
0000000000049034 g     F ro	0000000000000000 do_panic
000000000004814c g     F ro	0000000000000048 memmove
00000000000491ec g     F ro	0000000000000000 mpidr_mask_lower_afflvls
000000000004de00 g     O .bss	0000000000000080 rt_svc_descs_indices
00000000000445e8 g     F ro	0000000000000014 gicd_write_isenabler
0000000000048edc g     F ro	0000000000000000 psci_power_down_wfi
0000000000052000 g     O coherent_ram	0000000000000018 plat_console_lock
0000000000048f5c g     F ro	0000000000000000 psci_do_pwrup_cache_maintenance
0000000000047764 g     F ro	000000000000005c psci_affinity_info
0000000000046f88 g     F ro	000000000000003c get_max_afflvl
000000000004925c g     O ro	000000000000001e build_message
0000000000048a34 g     F ro	0000000000000000 el3_exit
0000000000047bd0 g     F ro	0000000000000130 psci_setup
0000000000048538 g     F ro	00000000000000e0 init_xlat_tables
000000000004c000 g       .data	0000000000000000 __DATA_START__
0000000000046888 g     F ro	00000000000000ec psci_afflvl_on
0000000000049258  w    F ro	0000000000000000 plat_disable_acp
00000000000487b8 g     F ro	0000000000000014 console_exit
00000000000457bc g     F ro	0000000000000028 sunxi_get_socid
000000000004464c g     F ro	000000000000000c gicd_set_isenabler
0000000000047d58 g     F ro	0000000000000058 psci_system_reset
0000000000044d84 g     F ro	0000000000000064 sunxi_pmic_write
0000000000044658 g     F ro	0000000000000088 gicd_set_ipriorityr
000000000004812c g     F ro	0000000000000020 memcpy
00000000000470f0 g     F ro	0000000000000030 psci_validate_mpidr
000000000004dbe0 g     O .bss	0000000000000020 plat_config
00000000000486d4 g     F ro	000000000000009c sunxi_serial_init
0000000000044de8 g     F ro	00000000000003d8 sunxi_pmic_setup
0000000000047d00 g     F ro	0000000000000058 psci_system_off
0000000000045520 g     F ro	0000000000000008 plat_get_max_afflvl
0000000000044c80 g     F ro	000000000000002c platform_setup_pm
0000000000045a9c g     F ro	0000000000000110 cm_init_context
00000000000491d8 g     F ro	0000000000000000 get_afflvl_shift
0000000000047b3c g     F ro	0000000000000094 psci_get_aff_map_nodes
0000000000045504 g     F ro	0000000000000010 plat_get_aff_count
0000000000048500 g     F ro	0000000000000038 mmap_add
0000000000045768 g     F ro	0000000000000054 sunxi_get_spsr_for_bl33_entry
000000000004ab38 g       ro	0000000000000000 __RT_SVC_DESCS_START__
00000000000449ec g     F ro	0000000000000048 sunxi_affinst_on
000000000004d040 g       stacks	0000000000000000 __STACKS_END__
0000000000047aa4 g     F ro	0000000000000098 psci_get_aff_map_node
0000000000047204 g     F ro	0000000000000054 psci_get_state
0000000000047440 g     F ro	0000000000000108 psci_afflvl_power_on_finish
00000000000441dc g     F ro	00000000000000c4 arm_gic_cpuif_deactivate
00000000000449b8 g     F ro	0000000000000034 sunxi_affinst_standby
0000000000047548 g     F ro	000000000000007c psci_print_affinity_map
0000000000049248  w    F ro	0000000000000000 platform_get_core_pos
000000000004ab78 g       ro	0000000000000000 __RT_SVC_DESCS_END__
00000000000457e4 g     F ro	0000000000000058 get_dt_name
0000000000049004 g     F ro	0000000000000000 asm_print_hex
000000000004497c g     F ro	000000000000003c bl31_plat_arch_setup
00000000000458fc g     F ro	0000000000000084 bl31_main
0000000000000e58 g       *ABS*	0000000000000000 __BSS_SIZE__
0000000000048fec g     F ro	0000000000000000 asm_print_str
0000000000046f60 g     F ro	0000000000000028 psci_get_max_phys_off_afflvl
00000000000486d0  w    F ro	0000000000000004 bl31_plat_enable_mmu
000000000004a078 g     O ro	0000000000000018 psci_afflvl_on_finishers
0000000000044564 g     F ro	000000000000005c arm_gic_get_pending_interrupt_type
00000000000459fc g     F ro	0000000000000004 cm_init
000000000004b000 g       ro	0000000000000000 runtime_exceptions
00000000000470a4 g     F ro	000000000000004c psci_release_afflvl_locks
000000000004879c g     F ro	000000000000001c console_init
0000000000048990 g     F ro	0000000000000000 _cpu_data_by_index
000000000004470c g     F ro	0000000000000048 gicv3_get_rdist
000000000004b800 g       ro	0000000000000000 __RO_END_UNALIGNED__
00000000000487cc g     F ro	0000000000000018 console_putc
0000000000045260 g     F ro	0000000000000028 sun50i_set_secondary_entry
0000000000044384 g     F ro	000000000000008c arm_gic_init
00000000000488b0 g     F ro	0000000000000000 plat_crash_console_init
0000000000049070 g     F ro	0000000000000000 flush_dcache_range
00000000000455f4  w    F ro	0000000000000040 sunxi_plat_sip_handler
0000000000045a4c g     F ro	0000000000000050 cm_set_context_by_mpidr
0000000000046fc4 g     F ro	0000000000000070 mpidr_set_aff_inst
0000000000045454 g     F ro	00000000000000b0 sun50i_cpu_power_down
0000000000049a50 g     O ro	0000000000000080 sunxi_mmap
0000000000048b70 g     F ro	0000000000000000 report_unhandled_exception
00000000000491c8 g     F ro	0000000000000000 dcsw_op_all
00000000000476fc g     F ro	0000000000000068 psci_cpu_off
0000000000048e3c g     F ro	0000000000000000 get_cpu_ops_ptr
0000000000044000 g     F ro	0000000000000000 bl31_entrypoint
000000000004896c g     F ro	0000000000000000 init_cpu_data_ptr
0000000000046f48 g     F ro	0000000000000018 psci_set_max_phys_off_afflvl
0000000000045a00 g     F ro	000000000000004c cm_get_context_by_mpidr
0000000000045530 g     F ro	00000000000000c4 sunxi_setup_clocks
0000000000045288 g     F ro	0000000000000054 sun50i_set_AA32nAA64
0000000000052018 g     O coherent_ram	00000000000000c8 psci_aff_map
00000000000473e4 g     F ro	000000000000005c psci_find_max_phys_off_afflvl
0000000000045754 g     F ro	0000000000000008 plat_get_ns_image_entrypoint
0000000000048e1c g     F ro	0000000000000000 do_cpu_reg_dump
0000000000047034 g     F ro	0000000000000024 psci_check_afflvl_range
000000000004c008 g       .data	0000000000000000 __DATA_END__
0000000000048770 g     F ro	000000000000002c sunxi_serial_putc
000000000004ab78 g       ro	0000000000000000 __CPU_OPS_START__
0000000000045248 g     F ro	0000000000000018 udelay
0000000000048870  w    F ro	0000000000000000 platform_set_stack
00000000000446e0 g     F ro	000000000000002c gicd_set_itargetsr
00000000000490a4 g     F ro	0000000000000000 inv_dcache_range
00000000000477c0 g     F ro	0000000000000104 psci_smc_handler
000000000004c004 g     O .data	0000000000000004 uart_locked
00000000000473c8 g     F ro	000000000000001c psci_get_phys_state
000000000004de98 g       .bss	0000000000000000 __BSS_END__
000000000004ab98 g       ro	0000000000000000 __CPU_OPS_END__
0000000000045660 g     F ro	0000000000000078 sip_smc_handler
00000000000491b8 g     F ro	0000000000000000 dcsw_op_louis
0000000000048ee8 g     F ro	0000000000000000 psci_do_pwrdown_cache_maintenance
0000000000048850  w    F ro	0000000000000000 platform_get_stack
0000000000047378 g     F ro	0000000000000050 psci_do_afflvl_state_mgmt
00000000000475c4 g     F ro	0000000000000060 psci_cpu_on
000000000004583c g     F ro	00000000000000c0 bl31_prepare_next_image_entry
0000000000052000 g       coherent_ram	0000000000000000 __COHERENT_RAM_START__
00000000000452dc g     F ro	0000000000000068 sun50i_power_switch_set
0000000000048110 g     F ro	000000000000001c memset
0000000000045e44 g     F ro	0000000000000020 bl31_arch_setup
0000000000046314 g     F ro	0000000000000118 psci_afflvl_off
0000000000046078 g     F ro	00000000000000b0 std_svc_smc_handler
0000000000048e80 g       ro	0000000000000000 psci_aff_suspend_finish_entry
00000000000447ac g     F ro	0000000000000128 bl31_early_platform_setup
0000000000045344 g     F ro	0000000000000110 sun50i_cpu_power_up
00000000000000e0 g       *ABS*	0000000000000000 __COHERENT_RAM_UNALIGNED_SIZE__
0000000000045e64 g     F ro	0000000000000054 bakery_lock_init
000000000004de80 g     O .bss	0000000000000008 psci_plat_pm_ops
00000000000445fc g     F ro	0000000000000020 gicd_get_igroupr
0000000000047120 g     F ro	00000000000000e4 psci_save_ns_entry
00000000000481c0 g     F ro	000000000000002c strcmp
0000000000045eb8 g     F ro	000000000000012c bakery_lock_get
0000000000045fe4 g     F ro	0000000000000090 bakery_lock_release
0000000000045e10 g     F ro	0000000000000034 get_interrupt_type_handler
0000000000046cf8 g     F ro	0000000000000018 psci_get_suspend_afflvl
0000000000047e24 g     F ro	00000000000002d0 tf_printf
0000000000046bdc g     F ro	0000000000000018 psci_set_suspend_power_state
00000000000472d8 g     F ro	00000000000000a0 psci_set_state
0000000000048de8 g     F ro	0000000000000000 init_cpu_ops
000000000004c000 g       ro	0000000000000000 __RO_END__
00000000000445c0 g     F ro	0000000000000014 gicd_read_igroupr
0000000000048dc4 g     F ro	0000000000000000 prepare_cluster_pwr_dwn
000000000004d040 g       .bss	0000000000000000 __BSS_START__
0000000000044000 g       ro	0000000000000000 __RO_START__
00000000000488b0 g       ro	0000000000000000 plat_crash_console_putc
000000000004dc00 g     O .bss	0000000000000200 percpu_data
00000000000442a0 g     F ro	00000000000000e4 arm_gic_pcpu_distif_setup
0000000000045db0 g     F ro	0000000000000060 get_scr_el3_from_routing_model
00000000000520e0 g       coherent_ram	0000000000000000 __COHERENT_RAM_END_UNALIGNED__
00000000000456d8 g     F ro	000000000000007c sunxi_configure_mmu_el3
00000000000448d4 g     F ro	00000000000000a8 bl31_platform_setup
0000000000048880 g     F ro	0000000000000000 platform_smp_init
000000000004c040 g       stacks	0000000000000000 __STACKS_START__
0000000000048da0 g     F ro	0000000000000000 prepare_core_pwr_dwn
0000000000048618 g     F ro	00000000000000b8 enable_mmu_el3
0000000000045c70 g     F ro	0000000000000140 runtime_svc_init
00000000000440c0 g     F ro	000000000000011c arm_gic_cpuif_setup
0000000000047258 g     F ro	0000000000000080 get_power_on_target_afflvl
00000000000480f4 g     F ro	000000000000001c __assert
0000000000048bc0 g     F ro	0000000000000000 el3_panic
000000000004461c g     F ro	0000000000000030 gicd_clr_igroupr
0000000000045514 g     F ro	000000000000000c plat_get_aff_state
000000000004575c g     F ro	000000000000000c plat_get_syscnt_freq
0000000000045528 g     F ro	0000000000000008 plat_setup_topology
00000000000488b8 g     F ro	0000000000000000 el1_sysregs_context_restore
0000000000049208 g     F ro	0000000000000000 zeromem16
0000000000048e78 g     F ro	0000000000000000 psci_aff_on_finish_entry
00000000000445d4 g     F ro	0000000000000014 gicd_write_igroupr
0000000000048b98 g     F ro	0000000000000000 report_unhandled_interrupt
000000000004de90 g     O .bss	0000000000000008 serial_ctrl_base
0000000000044cac g     F ro	0000000000000068 sunxi_security_setup
00000000000483d4 g     F ro	000000000000012c mmap_add_region
0000000000044410 g     F ro	0000000000000154 arm_gic_setup
0000000000044d14 g     F ro	0000000000000070 sunxi_pmic_read
000000000004de88 g     O .bss	0000000000000008 psci_spd_pm



Disassembly of section ro:

0000000000044000 <bl31_entrypoint>:
   44000:	14000006 	b	44018 <code_start>
   44004:	d503201f 	nop
   44008:	e0000005 	.word	0xe0000005
   4400c:	a8020400 	.word	0xa8020400
   44010:	c1008000 	.word	0xc1008000
   44014:	15000000 	.word	0x15000000

0000000000044018 <code_start>:
   44018:	2a0003f4 	mov	w20, w0
   4401c:	2a0103f5 	mov	w21, w1
   44020:	d2820141 	mov	x1, #0x100a                	// #4106
   44024:	d53e1000 	mrs	x0, sctlr_el3
   44028:	aa010000 	orr	x0, x0, x1
   4402c:	d51e1000 	msr	sctlr_el3, x0
   44030:	d5033fdf 	isb
   44034:	9400124e 	bl	4896c <init_cpu_data_ptr>
   44038:	10037e41 	adr	x1, 4b000 <runtime_exceptions>
   4403c:	d51ec001 	msr	vbar_el3, x1
   44040:	d5033fdf 	isb
   44044:	d50344ff 	msr	daifclr, #0x4
   44048:	d53e1141 	mrs	x1, cptr_el3
   4404c:	12007821 	and	w1, w1, #0x7fffffff
   44050:	120b7821 	and	w1, w1, #0xffefffff
   44054:	12157821 	and	w1, w1, #0xfffffbff
   44058:	d51e1141 	msr	cptr_el3, x1
   4405c:	58000220 	ldr	x0, 440a0 <code_start+0x88>
   44060:	58000241 	ldr	x1, 440a8 <code_start+0x90>
   44064:	94001469 	bl	49208 <zeromem16>
   44068:	58000240 	ldr	x0, 440b0 <code_start+0x98>
   4406c:	58000261 	ldr	x1, 440b8 <code_start+0xa0>
   44070:	94001466 	bl	49208 <zeromem16>
   44074:	9400135d 	bl	48de8 <init_cpu_ops>
   44078:	d50040bf 	msr	spsel, #0x0
   4407c:	d53800a0 	mrs	x0, mpidr_el1
   44080:	940011fc 	bl	48870 <platform_set_stack>
   44084:	aa1403e0 	mov	x0, x20
   44088:	aa1503e1 	mov	x1, x21
   4408c:	940001c8 	bl	447ac <bl31_early_platform_setup>
   44090:	9400023b 	bl	4497c <bl31_plat_arch_setup>
   44094:	9400061a 	bl	458fc <bl31_main>
   44098:	14001267 	b	48a34 <el3_exit>
   4409c:	00000000 	.inst	0x00000000 ; undefined
   440a0:	0004d040 	.word	0x0004d040
   440a4:	00000000 	.word	0x00000000
   440a8:	00000e58 	.word	0x00000e58
   440ac:	00000000 	.word	0x00000000
   440b0:	00052000 	.word	0x00052000
   440b4:	00000000 	.word	0x00000000
   440b8:	000000e0 	.word	0x000000e0
   440bc:	00000000 	.word	0x00000000

00000000000440c0 <arm_gic_cpuif_setup>:
   440c0:	a9be7bfd 	stp	x29, x30, [sp, #-32]!
   440c4:	b0000040 	adrp	x0, 4d000 <__STACKS_START__+0xfc0>
   440c8:	910003fd 	mov	x29, sp
   440cc:	b9404001 	ldr	w1, [x0, #64]
   440d0:	f9000bf3 	str	x19, [sp, #16]
   440d4:	35000121 	cbnz	w1, 440f8 <arm_gic_cpuif_setup+0x38>
   440d8:	b0000023 	adrp	x3, 49000 <asm_print_str+0x14>
   440dc:	b0000021 	adrp	x1, 49000 <asm_print_str+0x14>
   440e0:	b0000020 	adrp	x0, 49000 <asm_print_str+0x14>
   440e4:	910d0c63 	add	x3, x3, #0x343
   440e8:	910d3c21 	add	x1, x1, #0x34f
   440ec:	910adc00 	add	x0, x0, #0x2b7
   440f0:	52801482 	mov	w2, #0xa4                  	// #164
   440f4:	94001000 	bl	480f4 <__assert>
   440f8:	1103f021 	add	w1, w1, #0xfc
   440fc:	aa0003f3 	mov	x19, x0
   44100:	b9400020 	ldr	w0, [x1]
   44104:	d3504c00 	ubfx	x0, x0, #16, #4
   44108:	7100081f 	cmp	w0, #0x2
   4410c:	54000509 	b.ls	441ac <arm_gic_cpuif_setup+0xec>  // b.plast
   44110:	b0000040 	adrp	x0, 4d000 <__STACKS_START__+0xfc0>
   44114:	f9402400 	ldr	x0, [x0, #72]
   44118:	b5000120 	cbnz	x0, 4413c <arm_gic_cpuif_setup+0x7c>
   4411c:	b0000023 	adrp	x3, 49000 <asm_print_str+0x14>
   44120:	b0000021 	adrp	x1, 49000 <asm_print_str+0x14>
   44124:	b0000020 	adrp	x0, 49000 <asm_print_str+0x14>
   44128:	910da463 	add	x3, x3, #0x369
   4412c:	52800882 	mov	w2, #0x44                  	// #68
   44130:	910d3c21 	add	x1, x1, #0x34f
   44134:	910a3800 	add	x0, x0, #0x28e
   44138:	17ffffef 	b	440f4 <arm_gic_cpuif_setup+0x34>
   4413c:	d53800a1 	mrs	x1, mpidr_el1
   44140:	94000173 	bl	4470c <gicv3_get_rdist>
   44144:	b5000040 	cbnz	x0, 4414c <arm_gic_cpuif_setup+0x8c>
   44148:	940013bb 	bl	49034 <do_panic>
   4414c:	b9401401 	ldr	w1, [x0, #20]
   44150:	91005002 	add	x2, x0, #0x14
   44154:	121e7821 	and	w1, w1, #0xfffffffd
   44158:	b9001401 	str	w1, [x0, #20]
   4415c:	d5033f9f 	dsb	sy
   44160:	b9401400 	ldr	w0, [x0, #20]
   44164:	37100380 	tbnz	w0, #2, 441d4 <arm_gic_cpuif_setup+0x114>
   44168:	d53e1101 	mrs	x1, scr_el3
   4416c:	32000020 	orr	w0, w1, #0x1
   44170:	d51e1100 	msr	scr_el3, x0
   44174:	d5033fdf 	isb
   44178:	d53ecca0 	mrs	x0, s3_6_c12_c12_5
   4417c:	52800122 	mov	w2, #0x9                   	// #9
   44180:	2a000040 	orr	w0, w2, w0
   44184:	d51ecca0 	msr	s3_6_c12_c12_5, x0
   44188:	d53cc9a0 	mrs	x0, s3_4_c12_c9_5
   4418c:	2a000042 	orr	w2, w2, w0
   44190:	d51cc9a2 	msr	s3_4_c12_c9_5, x2
   44194:	d2801fe0 	mov	x0, #0xff                  	// #255
   44198:	d5184600 	msr	s3_0_c4_c6_0, x0
   4419c:	d5033fdf 	isb
   441a0:	92407c21 	and	x1, x1, #0xffffffff
   441a4:	d51e1101 	msr	scr_el3, x1
   441a8:	d5033fdf 	isb
   441ac:	b9404260 	ldr	w0, [x19, #64]
   441b0:	52801fe2 	mov	w2, #0xff                  	// #255
   441b4:	f9400bf3 	ldr	x19, [sp, #16]
   441b8:	11001001 	add	w1, w0, #0x4
   441bc:	2a0003e0 	mov	w0, w0
   441c0:	b9000022 	str	w2, [x1]
   441c4:	52803d21 	mov	w1, #0x1e9                 	// #489
   441c8:	b9000001 	str	w1, [x0]
   441cc:	a8c27bfd 	ldp	x29, x30, [sp], #32
   441d0:	d65f03c0 	ret
   441d4:	b9400040 	ldr	w0, [x2]
   441d8:	17ffffe3 	b	44164 <arm_gic_cpuif_setup+0xa4>

00000000000441dc <arm_gic_cpuif_deactivate>:
   441dc:	a9bf7bfd 	stp	x29, x30, [sp, #-16]!
   441e0:	b0000040 	adrp	x0, 4d000 <__STACKS_START__+0xfc0>
   441e4:	910003fd 	mov	x29, sp
   441e8:	b9404000 	ldr	w0, [x0, #64]
   441ec:	35000120 	cbnz	w0, 44210 <arm_gic_cpuif_deactivate+0x34>
   441f0:	b0000023 	adrp	x3, 49000 <asm_print_str+0x14>
   441f4:	b0000021 	adrp	x1, 49000 <asm_print_str+0x14>
   441f8:	b0000020 	adrp	x0, 49000 <asm_print_str+0x14>
   441fc:	910d0c63 	add	x3, x3, #0x343
   44200:	910d3c21 	add	x1, x1, #0x34f
   44204:	910b2c00 	add	x0, x0, #0x2cb
   44208:	52801802 	mov	w2, #0xc0                  	// #192
   4420c:	94000fba 	bl	480f4 <__assert>
   44210:	2a0003e2 	mov	w2, w0
   44214:	1103f000 	add	w0, w0, #0xfc
   44218:	b9400041 	ldr	w1, [x2]
   4421c:	121e7421 	and	w1, w1, #0xfffffffc
   44220:	321b0c21 	orr	w1, w1, #0x1e0
   44224:	b9000041 	str	w1, [x2]
   44228:	b9400000 	ldr	w0, [x0]
   4422c:	d3504c00 	ubfx	x0, x0, #16, #4
   44230:	7100081f 	cmp	w0, #0x2
   44234:	540002e9 	b.ls	44290 <arm_gic_cpuif_deactivate+0xb4>  // b.plast
   44238:	b0000040 	adrp	x0, 4d000 <__STACKS_START__+0xfc0>
   4423c:	f9402400 	ldr	x0, [x0, #72]
   44240:	b5000120 	cbnz	x0, 44264 <arm_gic_cpuif_deactivate+0x88>
   44244:	b0000023 	adrp	x3, 49000 <asm_print_str+0x14>
   44248:	b0000021 	adrp	x1, 49000 <asm_print_str+0x14>
   4424c:	b0000020 	adrp	x0, 49000 <asm_print_str+0x14>
   44250:	910da463 	add	x3, x3, #0x369
   44254:	528010e2 	mov	w2, #0x87                  	// #135
   44258:	910d3c21 	add	x1, x1, #0x34f
   4425c:	910a8000 	add	x0, x0, #0x2a0
   44260:	17ffffeb 	b	4420c <arm_gic_cpuif_deactivate+0x30>
   44264:	d53800a1 	mrs	x1, mpidr_el1
   44268:	94000129 	bl	4470c <gicv3_get_rdist>
   4426c:	b5000040 	cbnz	x0, 44274 <arm_gic_cpuif_deactivate+0x98>
   44270:	94001371 	bl	49034 <do_panic>
   44274:	b9401401 	ldr	w1, [x0, #20]
   44278:	91005002 	add	x2, x0, #0x14
   4427c:	321f0021 	orr	w1, w1, #0x2
   44280:	b9001401 	str	w1, [x0, #20]
   44284:	d5033f9f 	dsb	sy
   44288:	b9401400 	ldr	w0, [x0, #20]
   4428c:	36100060 	tbz	w0, #2, 44298 <arm_gic_cpuif_deactivate+0xbc>
   44290:	a8c17bfd 	ldp	x29, x30, [sp], #16
   44294:	d65f03c0 	ret
   44298:	b9400040 	ldr	w0, [x2]
   4429c:	17fffffc 	b	4428c <arm_gic_cpuif_deactivate+0xb0>

00000000000442a0 <arm_gic_pcpu_distif_setup>:
   442a0:	a9bc7bfd 	stp	x29, x30, [sp, #-64]!
   442a4:	910003fd 	mov	x29, sp
   442a8:	a90153f3 	stp	x19, x20, [sp, #16]
   442ac:	b0000053 	adrp	x19, 4d000 <__STACKS_START__+0xfc0>
   442b0:	a9025bf5 	stp	x21, x22, [sp, #32]
   442b4:	b9404660 	ldr	w0, [x19, #68]
   442b8:	f9001bf7 	str	x23, [sp, #48]
   442bc:	35000120 	cbnz	w0, 442e0 <arm_gic_pcpu_distif_setup+0x40>
   442c0:	b0000023 	adrp	x3, 49000 <asm_print_str+0x14>
   442c4:	910e3863 	add	x3, x3, #0x38e
   442c8:	52801b22 	mov	w2, #0xd9                  	// #217
   442cc:	b0000021 	adrp	x1, 49000 <asm_print_str+0x14>
   442d0:	b0000020 	adrp	x0, 49000 <asm_print_str+0x14>
   442d4:	910d3c21 	add	x1, x1, #0x34f
   442d8:	910b9000 	add	x0, x0, #0x2e4
   442dc:	94000f86 	bl	480f4 <__assert>
   442e0:	52800001 	mov	w1, #0x0                   	// #0
   442e4:	12800002 	mov	w2, #0xffffffff            	// #-1
   442e8:	940000bb 	bl	445d4 <gicd_write_igroupr>
   442ec:	b0000040 	adrp	x0, 4d000 <__STACKS_START__+0xfc0>
   442f0:	b9405801 	ldr	w1, [x0, #88]
   442f4:	34000161 	cbz	w1, 44320 <arm_gic_pcpu_distif_setup+0x80>
   442f8:	b0000041 	adrp	x1, 4d000 <__STACKS_START__+0xfc0>
   442fc:	52800014 	mov	w20, #0x0                   	// #0
   44300:	aa0103f6 	mov	x22, x1
   44304:	f9402822 	ldr	x2, [x1, #80]
   44308:	b4000162 	cbz	x2, 44334 <arm_gic_pcpu_distif_setup+0x94>
   4430c:	91016015 	add	x21, x0, #0x58
   44310:	91011273 	add	x19, x19, #0x44
   44314:	b94002a0 	ldr	w0, [x21]
   44318:	6b14001f 	cmp	w0, w20
   4431c:	54000148 	b.hi	44344 <arm_gic_pcpu_distif_setup+0xa4>  // b.pmore
   44320:	a94153f3 	ldp	x19, x20, [sp, #16]
   44324:	a9425bf5 	ldp	x21, x22, [sp, #32]
   44328:	f9401bf7 	ldr	x23, [sp, #48]
   4432c:	a8c47bfd 	ldp	x29, x30, [sp], #64
   44330:	d65f03c0 	ret
   44334:	b0000023 	adrp	x3, 49000 <asm_print_str+0x14>
   44338:	52801b82 	mov	w2, #0xdc                  	// #220
   4433c:	910e6863 	add	x3, x3, #0x39a
   44340:	17ffffe3 	b	442cc <arm_gic_pcpu_distif_setup+0x2c>
   44344:	f9402ac0 	ldr	x0, [x22, #80]
   44348:	b8745817 	ldr	w23, [x0, w20, uxtw #2]
   4434c:	71007eff 	cmp	w23, #0x1f
   44350:	54000168 	b.hi	4437c <arm_gic_pcpu_distif_setup+0xdc>  // b.pmore
   44354:	b9400260 	ldr	w0, [x19]
   44358:	2a1703e1 	mov	w1, w23
   4435c:	940000b0 	bl	4461c <gicd_clr_igroupr>
   44360:	b9400260 	ldr	w0, [x19]
   44364:	2a1703e1 	mov	w1, w23
   44368:	52800002 	mov	w2, #0x0                   	// #0
   4436c:	940000bb 	bl	44658 <gicd_set_ipriorityr>
   44370:	b9400260 	ldr	w0, [x19]
   44374:	2a1703e1 	mov	w1, w23
   44378:	940000b5 	bl	4464c <gicd_set_isenabler>
   4437c:	11000694 	add	w20, w20, #0x1
   44380:	17ffffe5 	b	44314 <arm_gic_pcpu_distif_setup+0x74>

0000000000044384 <arm_gic_init>:
   44384:	a9bf7bfd 	stp	x29, x30, [sp, #-16]!
   44388:	910003fd 	mov	x29, sp
   4438c:	35000120 	cbnz	w0, 443b0 <arm_gic_init+0x2c>
   44390:	b0000023 	adrp	x3, 49000 <asm_print_str+0x14>
   44394:	910d1463 	add	x3, x3, #0x345
   44398:	52802402 	mov	w2, #0x120                 	// #288
   4439c:	b0000021 	adrp	x1, 49000 <asm_print_str+0x14>
   443a0:	b0000020 	adrp	x0, 49000 <asm_print_str+0x14>
   443a4:	910d3c21 	add	x1, x1, #0x34f
   443a8:	910c4c00 	add	x0, x0, #0x313
   443ac:	94000f52 	bl	480f4 <__assert>
   443b0:	350000a1 	cbnz	w1, 443c4 <arm_gic_init+0x40>
   443b4:	b0000023 	adrp	x3, 49000 <asm_print_str+0x14>
   443b8:	52802422 	mov	w2, #0x121                 	// #289
   443bc:	910e4063 	add	x3, x3, #0x390
   443c0:	17fffff7 	b	4439c <arm_gic_init+0x18>
   443c4:	7100009f 	cmp	w4, #0x0
   443c8:	fa401860 	ccmp	x3, #0x0, #0x0, ne  // ne = any
   443cc:	540000a1 	b.ne	443e0 <arm_gic_init+0x5c>  // b.any
   443d0:	b0000023 	adrp	x3, 49000 <asm_print_str+0x14>
   443d4:	52802442 	mov	w2, #0x122                 	// #290
   443d8:	910dd463 	add	x3, x3, #0x375
   443dc:	17fffff0 	b	4439c <arm_gic_init+0x18>
   443e0:	b0000045 	adrp	x5, 4d000 <__STACKS_START__+0xfc0>
   443e4:	a8c17bfd 	ldp	x29, x30, [sp], #16
   443e8:	b90040a0 	str	w0, [x5, #64]
   443ec:	b0000040 	adrp	x0, 4d000 <__STACKS_START__+0xfc0>
   443f0:	b9004401 	str	w1, [x0, #68]
   443f4:	b0000040 	adrp	x0, 4d000 <__STACKS_START__+0xfc0>
   443f8:	f9002402 	str	x2, [x0, #72]
   443fc:	b0000040 	adrp	x0, 4d000 <__STACKS_START__+0xfc0>
   44400:	f9002803 	str	x3, [x0, #80]
   44404:	b0000040 	adrp	x0, 4d000 <__STACKS_START__+0xfc0>
   44408:	b9005804 	str	w4, [x0, #88]
   4440c:	d65f03c0 	ret

0000000000044410 <arm_gic_setup>:
   44410:	a9bb7bfd 	stp	x29, x30, [sp, #-80]!
   44414:	910003fd 	mov	x29, sp
   44418:	a90153f3 	stp	x19, x20, [sp, #16]
   4441c:	b0000054 	adrp	x20, 4d000 <__STACKS_START__+0xfc0>
   44420:	a9025bf5 	stp	x21, x22, [sp, #32]
   44424:	a90363f7 	stp	x23, x24, [sp, #48]
   44428:	a9046bf9 	stp	x25, x26, [sp, #64]
   4442c:	97ffff25 	bl	440c0 <arm_gic_cpuif_setup>
   44430:	b9404680 	ldr	w0, [x20, #68]
   44434:	35000120 	cbnz	w0, 44458 <arm_gic_setup+0x48>
   44438:	b0000023 	adrp	x3, 49000 <asm_print_str+0x14>
   4443c:	910e3863 	add	x3, x3, #0x38e
   44440:	52801e82 	mov	w2, #0xf4                  	// #244
   44444:	b0000021 	adrp	x1, 49000 <asm_print_str+0x14>
   44448:	b0000020 	adrp	x0, 49000 <asm_print_str+0x14>
   4444c:	910d3c21 	add	x1, x1, #0x34f
   44450:	910bf800 	add	x0, x0, #0x2fe
   44454:	94000f28 	bl	480f4 <__assert>
   44458:	2a0003e1 	mov	w1, w0
   4445c:	11001000 	add	w0, w0, #0x4
   44460:	91011297 	add	x23, x20, #0x44
   44464:	52800016 	mov	w22, #0x0                   	// #0
   44468:	b9400033 	ldr	w19, [x1]
   4446c:	121e7673 	and	w19, w19, #0xfffffffc
   44470:	b9000033 	str	w19, [x1]
   44474:	b9400015 	ldr	w21, [x0]
   44478:	120012b5 	and	w21, w21, #0x1f
   4447c:	110006b5 	add	w21, w21, #0x1
   44480:	b94002e0 	ldr	w0, [x23]
   44484:	531b6ac1 	lsl	w1, w22, #5
   44488:	12800002 	mov	w2, #0xffffffff            	// #-1
   4448c:	110006d6 	add	w22, w22, #0x1
   44490:	94000051 	bl	445d4 <gicd_write_igroupr>
   44494:	6b1602bf 	cmp	w21, w22
   44498:	54ffff48 	b.hi	44480 <arm_gic_setup+0x70>  // b.pmore
   4449c:	b0000040 	adrp	x0, 4d000 <__STACKS_START__+0xfc0>
   444a0:	b9405801 	ldr	w1, [x0, #88]
   444a4:	35000161 	cbnz	w1, 444d0 <arm_gic_setup+0xc0>
   444a8:	97ffff7e 	bl	442a0 <arm_gic_pcpu_distif_setup>
   444ac:	32000273 	orr	w19, w19, #0x1
   444b0:	b9404680 	ldr	w0, [x20, #68]
   444b4:	a9425bf5 	ldp	x21, x22, [sp, #32]
   444b8:	a94363f7 	ldp	x23, x24, [sp, #48]
   444bc:	a9446bf9 	ldp	x25, x26, [sp, #64]
   444c0:	b9000013 	str	w19, [x0]
   444c4:	a94153f3 	ldp	x19, x20, [sp, #16]
   444c8:	a8c57bfd 	ldp	x29, x30, [sp], #80
   444cc:	d65f03c0 	ret
   444d0:	b0000041 	adrp	x1, 4d000 <__STACKS_START__+0xfc0>
   444d4:	52800016 	mov	w22, #0x0                   	// #0
   444d8:	aa0103f8 	mov	x24, x1
   444dc:	f9402822 	ldr	x2, [x1, #80]
   444e0:	b40003a2 	cbz	x2, 44554 <arm_gic_setup+0x144>
   444e4:	91016017 	add	x23, x0, #0x58
   444e8:	91011299 	add	x25, x20, #0x44
   444ec:	b94002e0 	ldr	w0, [x23]
   444f0:	6b0002df 	cmp	w22, w0
   444f4:	54fffda2 	b.cs	444a8 <arm_gic_setup+0x98>  // b.hs, b.nlast
   444f8:	f9402b00 	ldr	x0, [x24, #80]
   444fc:	b8765815 	ldr	w21, [x0, w22, uxtw #2]
   44500:	71007ebf 	cmp	w21, #0x1f
   44504:	54000249 	b.ls	4454c <arm_gic_setup+0x13c>  // b.plast
   44508:	b9400320 	ldr	w0, [x25]
   4450c:	2a1503e1 	mov	w1, w21
   44510:	94000043 	bl	4461c <gicd_clr_igroupr>
   44514:	b9400320 	ldr	w0, [x25]
   44518:	52800002 	mov	w2, #0x0                   	// #0
   4451c:	2a1503e1 	mov	w1, w21
   44520:	9400004e 	bl	44658 <gicd_set_ipriorityr>
   44524:	b940033a 	ldr	w26, [x25]
   44528:	d53800a0 	mrs	x0, mpidr_el1
   4452c:	94001347 	bl	49248 <platform_get_core_pos>
   44530:	2a0003e2 	mov	w2, w0
   44534:	2a1503e1 	mov	w1, w21
   44538:	2a1a03e0 	mov	w0, w26
   4453c:	94000069 	bl	446e0 <gicd_set_itargetsr>
   44540:	b9400320 	ldr	w0, [x25]
   44544:	2a1503e1 	mov	w1, w21
   44548:	94000041 	bl	4464c <gicd_set_isenabler>
   4454c:	110006d6 	add	w22, w22, #0x1
   44550:	17ffffe7 	b	444ec <arm_gic_setup+0xdc>
   44554:	b0000023 	adrp	x3, 49000 <asm_print_str+0x14>
   44558:	52802082 	mov	w2, #0x104                 	// #260
   4455c:	910e6863 	add	x3, x3, #0x39a
   44560:	17ffffb9 	b	44444 <arm_gic_setup+0x34>

0000000000044564 <arm_gic_get_pending_interrupt_type>:
   44564:	b0000040 	adrp	x0, 4d000 <__STACKS_START__+0xfc0>
   44568:	b9404000 	ldr	w0, [x0, #64]
   4456c:	35000160 	cbnz	w0, 44598 <arm_gic_get_pending_interrupt_type+0x34>
   44570:	a9bf7bfd 	stp	x29, x30, [sp, #-16]!
   44574:	b0000023 	adrp	x3, 49000 <asm_print_str+0x14>
   44578:	b0000021 	adrp	x1, 49000 <asm_print_str+0x14>
   4457c:	b0000020 	adrp	x0, 49000 <asm_print_str+0x14>
   44580:	910003fd 	mov	x29, sp
   44584:	910d0c63 	add	x3, x3, #0x343
   44588:	52802b82 	mov	w2, #0x15c                 	// #348
   4458c:	910d3c21 	add	x1, x1, #0x34f
   44590:	910c8000 	add	x0, x0, #0x320
   44594:	94000ed8 	bl	480f4 <__assert>
   44598:	11006000 	add	w0, w0, #0x18
   4459c:	b9400000 	ldr	w0, [x0]
   445a0:	710ff41f 	cmp	w0, #0x3fd
   445a4:	540000a9 	b.ls	445b8 <arm_gic_get_pending_interrupt_type+0x54>  // b.plast
   445a8:	710ffc1f 	cmp	w0, #0x3ff
   445ac:	1a9f17e0 	cset	w0, eq  // eq = none
   445b0:	11000800 	add	w0, w0, #0x2
   445b4:	d65f03c0 	ret
   445b8:	52800000 	mov	w0, #0x0                   	// #0
   445bc:	d65f03c0 	ret

00000000000445c0 <gicd_read_igroupr>:
   445c0:	11020000 	add	w0, w0, #0x80
   445c4:	53057c21 	lsr	w1, w1, #5
   445c8:	0b010801 	add	w1, w0, w1, lsl #2
   445cc:	b9400020 	ldr	w0, [x1]
   445d0:	d65f03c0 	ret

00000000000445d4 <gicd_write_igroupr>:
   445d4:	11020000 	add	w0, w0, #0x80
   445d8:	53057c21 	lsr	w1, w1, #5
   445dc:	0b010801 	add	w1, w0, w1, lsl #2
   445e0:	b9000022 	str	w2, [x1]
   445e4:	d65f03c0 	ret

00000000000445e8 <gicd_write_isenabler>:
   445e8:	11040000 	add	w0, w0, #0x100
   445ec:	53057c21 	lsr	w1, w1, #5
   445f0:	0b010801 	add	w1, w0, w1, lsl #2
   445f4:	b9000022 	str	w2, [x1]
   445f8:	d65f03c0 	ret

00000000000445fc <gicd_get_igroupr>:
   445fc:	2a0103e2 	mov	w2, w1
   44600:	a9bf7bfd 	stp	x29, x30, [sp, #-16]!
   44604:	910003fd 	mov	x29, sp
   44608:	97ffffee 	bl	445c0 <gicd_read_igroupr>
   4460c:	1ac22400 	lsr	w0, w0, w2
   44610:	a8c17bfd 	ldp	x29, x30, [sp], #16
   44614:	12000000 	and	w0, w0, #0x1
   44618:	d65f03c0 	ret

000000000004461c <gicd_clr_igroupr>:
   4461c:	2a0103e3 	mov	w3, w1
   44620:	2a0003e4 	mov	w4, w0
   44624:	a9bf7bfd 	stp	x29, x30, [sp, #-16]!
   44628:	910003fd 	mov	x29, sp
   4462c:	97ffffe5 	bl	445c0 <gicd_read_igroupr>
   44630:	2a0303e1 	mov	w1, w3
   44634:	a8c17bfd 	ldp	x29, x30, [sp], #16
   44638:	52800022 	mov	w2, #0x1                   	// #1
   4463c:	1ac32042 	lsl	w2, w2, w3
   44640:	0a220002 	bic	w2, w0, w2
   44644:	2a0403e0 	mov	w0, w4
   44648:	17ffffe3 	b	445d4 <gicd_write_igroupr>

000000000004464c <gicd_set_isenabler>:
   4464c:	52800022 	mov	w2, #0x1                   	// #1
   44650:	1ac12042 	lsl	w2, w2, w1
   44654:	17ffffe5 	b	445e8 <gicd_write_isenabler>

0000000000044658 <gicd_set_ipriorityr>:
   44658:	2a0203e3 	mov	w3, w2
   4465c:	121e7424 	and	w4, w1, #0xfffffffc
   44660:	11100002 	add	w2, w0, #0x400
   44664:	a9bf7bfd 	stp	x29, x30, [sp, #-16]!
   44668:	0b020084 	add	w4, w4, w2
   4466c:	531d0425 	ubfiz	w5, w1, #3, #2
   44670:	910003fd 	mov	x29, sp
   44674:	b9400086 	ldr	w6, [x4]
   44678:	97ffffe1 	bl	445fc <gicd_get_igroupr>
   4467c:	7100041f 	cmp	w0, #0x1
   44680:	540001a1 	b.ne	446b4 <gicd_set_ipriorityr+0x5c>  // b.any
   44684:	51020060 	sub	w0, w3, #0x80
   44688:	7101f81f 	cmp	w0, #0x7e
   4468c:	1a9f87e0 	cset	w0, ls  // ls = plast
   44690:	35000160 	cbnz	w0, 446bc <gicd_set_ipriorityr+0x64>
   44694:	b0000023 	adrp	x3, 49000 <asm_print_str+0x14>
   44698:	b0000021 	adrp	x1, 49000 <asm_print_str+0x14>
   4469c:	b0000020 	adrp	x0, 49000 <asm_print_str+0x14>
   446a0:	910f2c63 	add	x3, x3, #0x3cb
   446a4:	528022e2 	mov	w2, #0x117                 	// #279
   446a8:	9111d021 	add	x1, x1, #0x474
   446ac:	910edc00 	add	x0, x0, #0x3b7
   446b0:	94000e91 	bl	480f4 <__assert>
   446b4:	7101fc7f 	cmp	w3, #0x7f
   446b8:	17fffff5 	b	4468c <gicd_set_ipriorityr+0x34>
   446bc:	52801fe0 	mov	w0, #0xff                  	// #255
   446c0:	12001c63 	and	w3, w3, #0xff
   446c4:	1ac52000 	lsl	w0, w0, w5
   446c8:	0a2000c0 	bic	w0, w6, w0
   446cc:	1ac52063 	lsl	w3, w3, w5
   446d0:	2a000063 	orr	w3, w3, w0
   446d4:	b9000083 	str	w3, [x4]
   446d8:	a8c17bfd 	ldp	x29, x30, [sp], #16
   446dc:	d65f03c0 	ret

00000000000446e0 <gicd_set_itargetsr>:
   446e0:	121e7424 	and	w4, w1, #0xfffffffc
   446e4:	11200000 	add	w0, w0, #0x800
   446e8:	0b000080 	add	w0, w4, w0
   446ec:	52800023 	mov	w3, #0x1                   	// #1
   446f0:	531d0421 	ubfiz	w1, w1, #3, #2
   446f4:	1ac22062 	lsl	w2, w3, w2
   446f8:	b9400004 	ldr	w4, [x0]
   446fc:	1ac12042 	lsl	w2, w2, w1
   44700:	2a040042 	orr	w2, w2, w4
   44704:	b9000002 	str	w2, [x0]
   44708:	d65f03c0 	ret

000000000004470c <gicv3_get_rdist>:
   4470c:	d360fc22 	lsr	x2, x1, #32
   44710:	12005c23 	and	w3, w1, #0xffffff
   44714:	2a026062 	orr	w2, w3, w2, lsl #24
   44718:	f9400403 	ldr	x3, [x0, #8]
   4471c:	d360fc64 	lsr	x4, x3, #32
   44720:	6b04005f 	cmp	w2, w4
   44724:	54000160 	b.eq	44750 <gicv3_get_rdist+0x44>  // b.none
   44728:	91408000 	add	x0, x0, #0x20, lsl #12
   4472c:	3627ff63 	tbz	w3, #4, 44718 <gicv3_get_rdist+0xc>
   44730:	a9bf7bfd 	stp	x29, x30, [sp, #-16]!
   44734:	b0000020 	adrp	x0, 49000 <asm_print_str+0x14>
   44738:	91123400 	add	x0, x0, #0x48d
   4473c:	910003fd 	mov	x29, sp
   44740:	94000db9 	bl	47e24 <tf_printf>
   44744:	d2800000 	mov	x0, #0x0                   	// #0
   44748:	a8c17bfd 	ldp	x29, x30, [sp], #16
   4474c:	d65f03c0 	ret
   44750:	d65f03c0 	ret

0000000000044754 <plat_ic_get_pending_interrupt_type>:
   44754:	17ffff84 	b	44564 <arm_gic_get_pending_interrupt_type>

0000000000044758 <bl31_plat_get_next_image_ep_info>:
   44758:	a9bf7bfd 	stp	x29, x30, [sp, #-16]!
   4475c:	7100041f 	cmp	w0, #0x1
   44760:	910003fd 	mov	x29, sp
   44764:	54000129 	b.ls	44788 <bl31_plat_get_next_image_ep_info+0x30>  // b.plast
   44768:	b0000023 	adrp	x3, 49000 <asm_print_str+0x14>
   4476c:	9115a063 	add	x3, x3, #0x568
   44770:	52800cc2 	mov	w2, #0x66                  	// #102
   44774:	b0000021 	adrp	x1, 49000 <asm_print_str+0x14>
   44778:	b0000020 	adrp	x0, 49000 <asm_print_str+0x14>
   4477c:	91160421 	add	x1, x1, #0x581
   44780:	91132c00 	add	x0, x0, #0x4cb
   44784:	94000e5c 	bl	480f4 <__assert>
   44788:	540000a0 	b.eq	4479c <bl31_plat_get_next_image_ep_info+0x44>  // b.none
   4478c:	b0000023 	adrp	x3, 49000 <asm_print_str+0x14>
   44790:	52800ce2 	mov	w2, #0x67                  	// #103
   44794:	91169063 	add	x3, x3, #0x5a4
   44798:	17fffff7 	b	44774 <bl31_plat_get_next_image_ep_info+0x1c>
   4479c:	b0000040 	adrp	x0, 4d000 <__STACKS_START__+0xfc0>
   447a0:	91018000 	add	x0, x0, #0x60
   447a4:	a8c17bfd 	ldp	x29, x30, [sp], #16
   447a8:	d65f03c0 	ret

00000000000447ac <bl31_early_platform_setup>:
   447ac:	a9be7bfd 	stp	x29, x30, [sp, #-32]!
   447b0:	52984002 	mov	w2, #0xc200                	// #49664
   447b4:	5286c001 	mov	w1, #0x3600                	// #13824
   447b8:	d2900000 	mov	x0, #0x8000                	// #32768
   447bc:	910003fd 	mov	x29, sp
   447c0:	a90153f3 	stp	x19, x20, [sp, #16]
   447c4:	72a00022 	movk	w2, #0x1, lsl #16
   447c8:	72a02dc1 	movk	w1, #0x16e, lsl #16
   447cc:	f2a03840 	movk	x0, #0x1c2, lsl #16
   447d0:	94000ff3 	bl	4879c <console_init>
   447d4:	10000014 	adr	x20, 447d4 <bl31_early_platform_setup+0x28>
   447d8:	9274ce94 	and	x20, x20, #0xfffffffffffff000
   447dc:	d29fffe0 	mov	x0, #0xffff                	// #65535
   447e0:	d1411281 	sub	x1, x20, #0x44, lsl #12
   447e4:	eb00003f 	cmp	x1, x0
   447e8:	540005e9 	b.ls	448a4 <bl31_early_platform_setup+0xf8>  // b.plast
   447ec:	d1404281 	sub	x1, x20, #0x10, lsl #12
   447f0:	d28fffe0 	mov	x0, #0x7fff                	// #32767
   447f4:	eb00003f 	cmp	x1, x0
   447f8:	540005c9 	b.ls	448b0 <bl31_early_platform_setup+0x104>  // b.plast
   447fc:	d1406281 	sub	x1, x20, #0x18, lsl #12
   44800:	91408000 	add	x0, x0, #0x20, lsl #12
   44804:	eb00003f 	cmp	x1, x0
   44808:	540005a9 	b.ls	448bc <bl31_early_platform_setup+0x110>  // b.plast
   4480c:	b0000023 	adrp	x3, 49000 <asm_print_str+0x14>
   44810:	b0000033 	adrp	x19, 49000 <asm_print_str+0x14>
   44814:	b24077e0 	mov	x0, #0x3fffffff            	// #1073741823
   44818:	91146463 	add	x3, x3, #0x519
   4481c:	eb00029f 	cmp	x20, x0
   44820:	91140e73 	add	x19, x19, #0x503
   44824:	9a839273 	csel	x19, x19, x3, ls  // ls = plast
   44828:	940003e5 	bl	457bc <sunxi_get_socid>
   4482c:	12003c02 	and	w2, w0, #0xffff
   44830:	5282d120 	mov	w0, #0x1689                	// #5769
   44834:	6b00005f 	cmp	w2, w0
   44838:	54000480 	b.eq	448c8 <bl31_early_platform_setup+0x11c>  // b.none
   4483c:	b0000020 	adrp	x0, 49000 <asm_print_str+0x14>
   44840:	b0000021 	adrp	x1, 49000 <asm_print_str+0x14>
   44844:	5282e303 	mov	w3, #0x1718                	// #5912
   44848:	91147800 	add	x0, x0, #0x51e
   4484c:	6b03005f 	cmp	w2, w3
   44850:	9114c821 	add	x1, x1, #0x532
   44854:	9a800021 	csel	x1, x1, x0, eq  // eq = none
   44858:	aa1403e4 	mov	x4, x20
   4485c:	aa1303e3 	mov	x3, x19
   44860:	b0000020 	adrp	x0, 49000 <asm_print_str+0x14>
   44864:	9114d400 	add	x0, x0, #0x535
   44868:	b0000053 	adrp	x19, 4d000 <__STACKS_START__+0xfc0>
   4486c:	91018273 	add	x19, x19, #0x60
   44870:	94000d6d 	bl	47e24 <tf_printf>
   44874:	9400010e 	bl	44cac <sunxi_security_setup>
   44878:	940003b7 	bl	45754 <plat_get_ns_image_entrypoint>
   4487c:	f9000660 	str	x0, [x19, #8]
   44880:	52800800 	mov	w0, #0x40                  	// #64
   44884:	940003b9 	bl	45768 <sunxi_get_spsr_for_bl33_entry>
   44888:	b9001260 	str	w0, [x19, #16]
   4488c:	b9400660 	ldr	w0, [x19, #4]
   44890:	32000000 	orr	w0, w0, #0x1
   44894:	b9000660 	str	w0, [x19, #4]
   44898:	a94153f3 	ldp	x19, x20, [sp, #16]
   4489c:	a8c27bfd 	ldp	x29, x30, [sp], #32
   448a0:	d65f03c0 	ret
   448a4:	b0000033 	adrp	x19, 49000 <asm_print_str+0x14>
   448a8:	9113b273 	add	x19, x19, #0x4ec
   448ac:	17ffffdf 	b	44828 <bl31_early_platform_setup+0x7c>
   448b0:	b0000033 	adrp	x19, 49000 <asm_print_str+0x14>
   448b4:	9113d273 	add	x19, x19, #0x4f4
   448b8:	17ffffdc 	b	44828 <bl31_early_platform_setup+0x7c>
   448bc:	b0000033 	adrp	x19, 49000 <asm_print_str+0x14>
   448c0:	9113f273 	add	x19, x19, #0x4fc
   448c4:	17ffffd9 	b	44828 <bl31_early_platform_setup+0x7c>
   448c8:	b0000021 	adrp	x1, 49000 <asm_print_str+0x14>
   448cc:	9114a821 	add	x1, x1, #0x52a
   448d0:	17ffffe2 	b	44858 <bl31_early_platform_setup+0xac>

00000000000448d4 <bl31_platform_setup>:
   448d4:	a9bd7bfd 	stp	x29, x30, [sp, #-48]!
   448d8:	52820001 	mov	w1, #0x1000                	// #4096
   448dc:	52840000 	mov	w0, #0x2000                	// #8192
   448e0:	52800004 	mov	w4, #0x0                   	// #0
   448e4:	d2800003 	mov	x3, #0x0                   	// #0
   448e8:	d2800002 	mov	x2, #0x0                   	// #0
   448ec:	72a03901 	movk	w1, #0x1c8, lsl #16
   448f0:	72a03900 	movk	w0, #0x1c8, lsl #16
   448f4:	910003fd 	mov	x29, sp
   448f8:	a90153f3 	stp	x19, x20, [sp, #16]
   448fc:	f90013f5 	str	x21, [sp, #32]
   44900:	97fffea1 	bl	44384 <arm_gic_init>
   44904:	97fffec3 	bl	44410 <arm_gic_setup>
   44908:	940003ad 	bl	457bc <sunxi_get_socid>
   4490c:	12003c15 	and	w21, w0, #0xffff
   44910:	2a1503f4 	mov	w20, w21
   44914:	940003b4 	bl	457e4 <get_dt_name>
   44918:	aa0003f3 	mov	x19, x0
   4491c:	b4000280 	cbz	x0, 4496c <bl31_platform_setup+0x98>
   44920:	aa0003e1 	mov	x1, x0
   44924:	b0000020 	adrp	x0, 49000 <asm_print_str+0x14>
   44928:	9116dc00 	add	x0, x0, #0x5b7
   4492c:	94000d3e 	bl	47e24 <tf_printf>
   44930:	940002fe 	bl	45528 <plat_setup_topology>
   44934:	5282d120 	mov	w0, #0x1689                	// #5769
   44938:	6b0002bf 	cmp	w21, w0
   4493c:	54000061 	b.ne	44948 <bl31_platform_setup+0x74>  // b.any
   44940:	aa1303e0 	mov	x0, x19
   44944:	94000129 	bl	44de8 <sunxi_pmic_setup>
   44948:	aa1303e1 	mov	x1, x19
   4494c:	2a1403e0 	mov	w0, w20
   44950:	940002f8 	bl	45530 <sunxi_setup_clocks>
   44954:	f94013f5 	ldr	x21, [sp, #32]
   44958:	a94153f3 	ldp	x19, x20, [sp, #16]
   4495c:	b0000020 	adrp	x0, 49000 <asm_print_str+0x14>
   44960:	a8c37bfd 	ldp	x29, x30, [sp], #48
   44964:	91180c00 	add	x0, x0, #0x603
   44968:	14000d2f 	b	47e24 <tf_printf>
   4496c:	b0000020 	adrp	x0, 49000 <asm_print_str+0x14>
   44970:	91172000 	add	x0, x0, #0x5c8
   44974:	94000d2c 	bl	47e24 <tf_printf>
   44978:	17ffffee 	b	44930 <bl31_platform_setup+0x5c>

000000000004497c <bl31_plat_arch_setup>:
   4497c:	a9bf7bfd 	stp	x29, x30, [sp, #-16]!
   44980:	910003fd 	mov	x29, sp
   44984:	94000fbf 	bl	48880 <platform_smp_init>
   44988:	a8c17bfd 	ldp	x29, x30, [sp], #16
   4498c:	90000002 	adrp	x2, 44000 <bl31_entrypoint>
   44990:	f0000065 	adrp	x5, 53000 <__BL31_END__>
   44994:	91000042 	add	x2, x2, #0x0
   44998:	910000a5 	add	x5, x5, #0x0
   4499c:	d0000064 	adrp	x4, 52000 <plat_console_lock>
   449a0:	90000043 	adrp	x3, 4c000 <__RO_END__>
   449a4:	91000084 	add	x4, x4, #0x0
   449a8:	91000063 	add	x3, x3, #0x0
   449ac:	cb0200a1 	sub	x1, x5, x2
   449b0:	aa0203e0 	mov	x0, x2
   449b4:	14000349 	b	456d8 <sunxi_configure_mmu_el3>

00000000000449b8 <sunxi_affinst_standby>:
   449b8:	7208041f 	tst	w0, #0x3000000
   449bc:	54000141 	b.ne	449e4 <sunxi_affinst_standby+0x2c>  // b.any
   449c0:	d53e1100 	mrs	x0, scr_el3
   449c4:	b27f0001 	orr	x1, x0, #0x2
   449c8:	d51e1101 	msr	scr_el3, x1
   449cc:	d5033fdf 	isb
   449d0:	d5033f9f 	dsb	sy
   449d4:	d503207f 	wfi
   449d8:	d51e1100 	msr	scr_el3, x0
   449dc:	52800000 	mov	w0, #0x0                   	// #0
   449e0:	d65f03c0 	ret
   449e4:	12800020 	mov	w0, #0xfffffffe            	// #-2
   449e8:	17fffffe 	b	449e0 <sunxi_affinst_standby+0x28>

00000000000449ec <sunxi_affinst_on>:
   449ec:	35000203 	cbnz	w3, 44a2c <sunxi_affinst_on+0x40>
   449f0:	a9be7bfd 	stp	x29, x30, [sp, #-32]!
   449f4:	910003fd 	mov	x29, sp
   449f8:	a90153f3 	stp	x19, x20, [sp, #16]
   449fc:	aa0003f3 	mov	x19, x0
   44a00:	12001e74 	and	w20, w19, #0xff
   44a04:	aa0103e0 	mov	x0, x1
   44a08:	2a1403e1 	mov	w1, w20
   44a0c:	94000215 	bl	45260 <sun50i_set_secondary_entry>
   44a10:	2a1403e1 	mov	w1, w20
   44a14:	53083e60 	ubfx	w0, w19, #8, #8
   44a18:	9400024b 	bl	45344 <sun50i_cpu_power_up>
   44a1c:	52800000 	mov	w0, #0x0                   	// #0
   44a20:	a94153f3 	ldp	x19, x20, [sp, #16]
   44a24:	a8c27bfd 	ldp	x29, x30, [sp], #32
   44a28:	d65f03c0 	ret
   44a2c:	52800000 	mov	w0, #0x0                   	// #0
   44a30:	d65f03c0 	ret

0000000000044a34 <sunxi_system_reset>:
   44a34:	a9bf7bfd 	stp	x29, x30, [sp, #-16]!
   44a38:	d2819681 	mov	x1, #0xcb4                 	// #3252
   44a3c:	f2a03841 	movk	x1, #0x1c2, lsl #16
   44a40:	52800020 	mov	w0, #0x1                   	// #1
   44a44:	910003fd 	mov	x29, sp
   44a48:	b9000020 	str	w0, [x1]
   44a4c:	b9000420 	str	w0, [x1, #4]
   44a50:	d2819600 	mov	x0, #0xcb0                 	// #3248
   44a54:	f2a03840 	movk	x0, #0x1c2, lsl #16
   44a58:	528295e1 	mov	w1, #0x14af                	// #5295
   44a5c:	b9000001 	str	w1, [x0]
   44a60:	d503207f 	wfi
   44a64:	b0000020 	adrp	x0, 49000 <asm_print_str+0x14>
   44a68:	911d2000 	add	x0, x0, #0x748
   44a6c:	94000cee 	bl	47e24 <tf_printf>
   44a70:	94001171 	bl	49034 <do_panic>

0000000000044a74 <sunxi_system_off>:
   44a74:	a9bf7bfd 	stp	x29, x30, [sp, #-16]!
   44a78:	52800640 	mov	w0, #0x32                  	// #50
   44a7c:	910003fd 	mov	x29, sp
   44a80:	940000a5 	bl	44d14 <sunxi_pmic_read>
   44a84:	32196001 	orr	w1, w0, #0xffffff80
   44a88:	52800640 	mov	w0, #0x32                  	// #50
   44a8c:	940000be 	bl	44d84 <sunxi_pmic_write>
   44a90:	b0000020 	adrp	x0, 49000 <asm_print_str+0x14>
   44a94:	911c6000 	add	x0, x0, #0x718
   44a98:	94000ce3 	bl	47e24 <tf_printf>
   44a9c:	d503207f 	wfi
   44aa0:	94001165 	bl	49034 <do_panic>

0000000000044aa4 <sunxi_core_power_down_wfi>:
   44aa4:	12001c01 	and	w1, w0, #0xff
   44aa8:	53083c00 	ubfx	w0, w0, #8, #8
   44aac:	1400026a 	b	45454 <sun50i_cpu_power_down>

0000000000044ab0 <sunxi_do_plat_actions>:
   44ab0:	a9be7bfd 	stp	x29, x30, [sp, #-32]!
   44ab4:	7100081f 	cmp	w0, #0x2
   44ab8:	910003fd 	mov	x29, sp
   44abc:	a90153f3 	stp	x19, x20, [sp, #16]
   44ac0:	54000129 	b.ls	44ae4 <sunxi_do_plat_actions+0x34>  // b.plast
   44ac4:	d0000023 	adrp	x3, 4a000 <__func__.2258+0x12>
   44ac8:	91156863 	add	x3, x3, #0x55a
   44acc:	52800782 	mov	w2, #0x3c                  	// #60
   44ad0:	b0000021 	adrp	x1, 49000 <asm_print_str+0x14>
   44ad4:	b0000020 	adrp	x0, 49000 <asm_print_str+0x14>
   44ad8:	91196821 	add	x1, x1, #0x65a
   44adc:	91191000 	add	x0, x0, #0x644
   44ae0:	94000d85 	bl	480f4 <__assert>
   44ae4:	7100043f 	cmp	w1, #0x1
   44ae8:	540000a0 	b.eq	44afc <sunxi_do_plat_actions+0x4c>  // b.none
   44aec:	12800440 	mov	w0, #0xffffffdd            	// #-35
   44af0:	a94153f3 	ldp	x19, x20, [sp, #16]
   44af4:	a8c27bfd 	ldp	x29, x30, [sp], #32
   44af8:	d65f03c0 	ret
   44afc:	2a0003f4 	mov	w20, w0
   44b00:	94000918 	bl	46f60 <psci_get_max_phys_off_afflvl>
   44b04:	2a0003f3 	mov	w19, w0
   44b08:	3100041f 	cmn	w0, #0x1
   44b0c:	540000a1 	b.ne	44b20 <sunxi_do_plat_actions+0x70>  // b.any
   44b10:	b0000023 	adrp	x3, 49000 <asm_print_str+0x14>
   44b14:	528008c2 	mov	w2, #0x46                  	// #70
   44b18:	9119d063 	add	x3, x3, #0x674
   44b1c:	17ffffed 	b	44ad0 <sunxi_do_plat_actions+0x20>
   44b20:	94000876 	bl	46cf8 <psci_get_suspend_afflvl>
   44b24:	6b13001f 	cmp	w0, w19
   44b28:	540000a2 	b.cs	44b3c <sunxi_do_plat_actions+0x8c>  // b.hs, b.nlast
   44b2c:	b0000023 	adrp	x3, 49000 <asm_print_str+0x14>
   44b30:	528008e2 	mov	w2, #0x47                  	// #71
   44b34:	911a7463 	add	x3, x3, #0x69d
   44b38:	17ffffe6 	b	44ad0 <sunxi_do_plat_actions+0x20>
   44b3c:	6b13029f 	cmp	w20, w19
   44b40:	54fffd61 	b.ne	44aec <sunxi_do_plat_actions+0x3c>  // b.any
   44b44:	52800000 	mov	w0, #0x0                   	// #0
   44b48:	17ffffea 	b	44af0 <sunxi_do_plat_actions+0x40>

0000000000044b4c <sunxi_affinst_off>:
   44b4c:	a9bf7bfd 	stp	x29, x30, [sp, #-16]!
   44b50:	2a0103e0 	mov	w0, w1
   44b54:	2a0203e1 	mov	w1, w2
   44b58:	910003fd 	mov	x29, sp
   44b5c:	97ffffd5 	bl	44ab0 <sunxi_do_plat_actions>
   44b60:	31008c1f 	cmn	w0, #0x23
   44b64:	54000040 	b.eq	44b6c <sunxi_affinst_off+0x20>  // b.none
   44b68:	97fffd9d 	bl	441dc <arm_gic_cpuif_deactivate>
   44b6c:	52800000 	mov	w0, #0x0                   	// #0
   44b70:	a8c17bfd 	ldp	x29, x30, [sp], #16
   44b74:	d65f03c0 	ret

0000000000044b78 <sunxi_affinst_on_finish>:
   44b78:	a9bf7bfd 	stp	x29, x30, [sp, #-16]!
   44b7c:	2a0103e0 	mov	w0, w1
   44b80:	2a0203e1 	mov	w1, w2
   44b84:	910003fd 	mov	x29, sp
   44b88:	97ffffca 	bl	44ab0 <sunxi_do_plat_actions>
   44b8c:	31008c1f 	cmn	w0, #0x23
   44b90:	54000080 	b.eq	44ba0 <sunxi_affinst_on_finish+0x28>  // b.none
   44b94:	94000f3b 	bl	48880 <platform_smp_init>
   44b98:	97fffd4a 	bl	440c0 <arm_gic_cpuif_setup>
   44b9c:	97fffdc1 	bl	442a0 <arm_gic_pcpu_distif_setup>
   44ba0:	52800000 	mov	w0, #0x0                   	// #0
   44ba4:	a8c17bfd 	ldp	x29, x30, [sp], #16
   44ba8:	d65f03c0 	ret

0000000000044bac <sunxi_affinst_suspend_finish>:
   44bac:	a9bd7bfd 	stp	x29, x30, [sp, #-48]!
   44bb0:	910003fd 	mov	x29, sp
   44bb4:	a90153f3 	stp	x19, x20, [sp, #16]
   44bb8:	2a0103f4 	mov	w20, w1
   44bbc:	f90013f5 	str	x21, [sp, #32]
   44bc0:	aa0003f3 	mov	x19, x0
   44bc4:	2a0203f5 	mov	w21, w2
   44bc8:	9400084c 	bl	46cf8 <psci_get_suspend_afflvl>
   44bcc:	6b14001f 	cmp	w0, w20
   44bd0:	54000261 	b.ne	44c1c <sunxi_affinst_suspend_finish+0x70>  // b.any
   44bd4:	92401e60 	and	x0, x19, #0xff
   44bd8:	b5000220 	cbnz	x0, 44c1c <sunxi_affinst_suspend_finish+0x70>
   44bdc:	52820001 	mov	w1, #0x1000                	// #4096
   44be0:	52840000 	mov	w0, #0x2000                	// #8192
   44be4:	d2800002 	mov	x2, #0x0                   	// #0
   44be8:	72a03901 	movk	w1, #0x1c8, lsl #16
   44bec:	72a03900 	movk	w0, #0x1c8, lsl #16
   44bf0:	52800004 	mov	w4, #0x0                   	// #0
   44bf4:	d2800003 	mov	x3, #0x0                   	// #0
   44bf8:	97fffde3 	bl	44384 <arm_gic_init>
   44bfc:	97fffe05 	bl	44410 <arm_gic_setup>
   44c00:	52984002 	mov	w2, #0xc200                	// #49664
   44c04:	5286c001 	mov	w1, #0x3600                	// #13824
   44c08:	d2900000 	mov	x0, #0x8000                	// #32768
   44c0c:	72a00022 	movk	w2, #0x1, lsl #16
   44c10:	72a02dc1 	movk	w1, #0x16e, lsl #16
   44c14:	f2a03840 	movk	x0, #0x1c2, lsl #16
   44c18:	94000ee1 	bl	4879c <console_init>
   44c1c:	2a1503e2 	mov	w2, w21
   44c20:	2a1403e1 	mov	w1, w20
   44c24:	aa1303e0 	mov	x0, x19
   44c28:	f94013f5 	ldr	x21, [sp, #32]
   44c2c:	a94153f3 	ldp	x19, x20, [sp, #16]
   44c30:	a8c37bfd 	ldp	x29, x30, [sp], #48
   44c34:	17ffffd1 	b	44b78 <sunxi_affinst_on_finish>

0000000000044c38 <sunxi_affinst_suspend>:
   44c38:	a9be7bfd 	stp	x29, x30, [sp, #-32]!
   44c3c:	2a0403e1 	mov	w1, w4
   44c40:	2a0303e0 	mov	w0, w3
   44c44:	910003fd 	mov	x29, sp
   44c48:	f9000bf3 	str	x19, [sp, #16]
   44c4c:	2a0303f3 	mov	w19, w3
   44c50:	97ffff98 	bl	44ab0 <sunxi_do_plat_actions>
   44c54:	31008c1f 	cmn	w0, #0x23
   44c58:	540000c0 	b.eq	44c70 <sunxi_affinst_suspend+0x38>  // b.none
   44c5c:	94000827 	bl	46cf8 <psci_get_suspend_afflvl>
   44c60:	6b00027f 	cmp	w19, w0
   44c64:	54000041 	b.ne	44c6c <sunxi_affinst_suspend+0x34>  // b.any
   44c68:	94000ed4 	bl	487b8 <console_exit>
   44c6c:	97fffd5c 	bl	441dc <arm_gic_cpuif_deactivate>
   44c70:	52800000 	mov	w0, #0x0                   	// #0
   44c74:	f9400bf3 	ldr	x19, [sp, #16]
   44c78:	a8c27bfd 	ldp	x29, x30, [sp], #32
   44c7c:	d65f03c0 	ret

0000000000044c80 <platform_setup_pm>:
   44c80:	a9bf7bfd 	stp	x29, x30, [sp, #-16]!
   44c84:	b0000021 	adrp	x1, 49000 <asm_print_str+0x14>
   44c88:	911b4021 	add	x1, x1, #0x6d0
   44c8c:	910003fd 	mov	x29, sp
   44c90:	f9000001 	str	x1, [x0]
   44c94:	d0000060 	adrp	x0, 52000 <plat_console_lock>
   44c98:	91000000 	add	x0, x0, #0x0
   44c9c:	94000472 	bl	45e64 <bakery_lock_init>
   44ca0:	52800000 	mov	w0, #0x0                   	// #0
   44ca4:	a8c17bfd 	ldp	x29, x30, [sp], #16
   44ca8:	d65f03c0 	ret

0000000000044cac <sunxi_security_setup>:
   44cac:	a9bf7bfd 	stp	x29, x30, [sp, #-16]!
   44cb0:	b0000020 	adrp	x0, 49000 <asm_print_str+0x14>
   44cb4:	911df400 	add	x0, x0, #0x77d
   44cb8:	910003fd 	mov	x29, sp
   44cbc:	94000c5a 	bl	47e24 <tf_printf>
   44cc0:	d2868101 	mov	x1, #0x3408                	// #13320
   44cc4:	52801fe0 	mov	w0, #0xff                  	// #255
   44cc8:	f2a03841 	movk	x1, #0x1c2, lsl #16
   44ccc:	d2805e02 	mov	x2, #0x2f0                 	// #752
   44cd0:	f2a03842 	movk	x2, #0x1c2, lsl #16
   44cd4:	b9000020 	str	w0, [x1]
   44cd8:	b9000c20 	str	w0, [x1, #12]
   44cdc:	b9001820 	str	w0, [x1, #24]
   44ce0:	b9002420 	str	w0, [x1, #36]
   44ce4:	b9003020 	str	w0, [x1, #48]
   44ce8:	b9003c20 	str	w0, [x1, #60]
   44cec:	528000e1 	mov	w1, #0x7                   	// #7
   44cf0:	b9000041 	str	w1, [x2]
   44cf4:	d282ba02 	mov	x2, #0x15d0                	// #5584
   44cf8:	f2a03e02 	movk	x2, #0x1f0, lsl #16
   44cfc:	b9000041 	str	w1, [x2]
   44d00:	d2840401 	mov	x1, #0x2020                	// #8224
   44d04:	f2a03801 	movk	x1, #0x1c0, lsl #16
   44d08:	b9000020 	str	w0, [x1]
   44d0c:	a8c17bfd 	ldp	x29, x30, [sp], #16
   44d10:	d65f03c0 	ret

0000000000044d14 <sunxi_pmic_read>:
   44d14:	d2868301 	mov	x1, #0x3418                	// #13336
   44d18:	52800202 	mov	w2, #0x10                  	// #16
   44d1c:	f2a03e01 	movk	x1, #0x1f0, lsl #16
   44d20:	12001c00 	and	w0, w0, #0xff
   44d24:	b9000022 	str	w2, [x1]
   44d28:	52801162 	mov	w2, #0x8b                  	// #139
   44d2c:	b9001422 	str	w2, [x1, #20]
   44d30:	d2868201 	mov	x1, #0x3410                	// #13328
   44d34:	f2a03e01 	movk	x1, #0x1f0, lsl #16
   44d38:	b9000020 	str	w0, [x1]
   44d3c:	d2868000 	mov	x0, #0x3400                	// #13312
   44d40:	f2a03e00 	movk	x0, #0x1f0, lsl #16
   44d44:	52801001 	mov	w1, #0x80                  	// #128
   44d48:	b9000001 	str	w1, [x0]
   44d4c:	b9400001 	ldr	w1, [x0]
   44d50:	373fffe1 	tbnz	w1, #7, 44d4c <sunxi_pmic_read+0x38>
   44d54:	d2868180 	mov	x0, #0x340c                	// #13324
   44d58:	f2a03e00 	movk	x0, #0x1f0, lsl #16
   44d5c:	b9400000 	ldr	w0, [x0]
   44d60:	7100041f 	cmp	w0, #0x1
   44d64:	540000c1 	b.ne	44d7c <sunxi_pmic_read+0x68>  // b.any
   44d68:	d2868380 	mov	x0, #0x341c                	// #13340
   44d6c:	f2a03e00 	movk	x0, #0x1f0, lsl #16
   44d70:	b9400000 	ldr	w0, [x0]
   44d74:	12001c00 	and	w0, w0, #0xff
   44d78:	d65f03c0 	ret
   44d7c:	4b0003e0 	neg	w0, w0
   44d80:	17fffffe 	b	44d78 <sunxi_pmic_read+0x64>

0000000000044d84 <sunxi_pmic_write>:
   44d84:	d2868302 	mov	x2, #0x3418                	// #13336
   44d88:	528009c3 	mov	w3, #0x4e                  	// #78
   44d8c:	f2a03e02 	movk	x2, #0x1f0, lsl #16
   44d90:	12001c00 	and	w0, w0, #0xff
   44d94:	12001c21 	and	w1, w1, #0xff
   44d98:	b900005f 	str	wzr, [x2]
   44d9c:	b9001443 	str	w3, [x2, #20]
   44da0:	d2868202 	mov	x2, #0x3410                	// #13328
   44da4:	f2a03e02 	movk	x2, #0x1f0, lsl #16
   44da8:	b9000040 	str	w0, [x2]
   44dac:	d2868380 	mov	x0, #0x341c                	// #13340
   44db0:	f2a03e00 	movk	x0, #0x1f0, lsl #16
   44db4:	b9000001 	str	w1, [x0]
   44db8:	d2868000 	mov	x0, #0x3400                	// #13312
   44dbc:	f2a03e00 	movk	x0, #0x1f0, lsl #16
   44dc0:	52801001 	mov	w1, #0x80                  	// #128
   44dc4:	b9000001 	str	w1, [x0]
   44dc8:	b9400001 	ldr	w1, [x0]
   44dcc:	373fffe1 	tbnz	w1, #7, 44dc8 <sunxi_pmic_write+0x44>
   44dd0:	d2868180 	mov	x0, #0x340c                	// #13324
   44dd4:	f2a03e00 	movk	x0, #0x1f0, lsl #16
   44dd8:	b9400000 	ldr	w0, [x0]
   44ddc:	7100041f 	cmp	w0, #0x1
   44de0:	5a8007e0 	csneg	w0, wzr, w0, eq  // eq = none
   44de4:	d65f03c0 	ret

0000000000044de8 <sunxi_pmic_setup>:
   44de8:	a9be7bfd 	stp	x29, x30, [sp, #-32]!
   44dec:	910003fd 	mov	x29, sp
   44df0:	a90153f3 	stp	x19, x20, [sp, #16]
   44df4:	aa0003f4 	mov	x20, x0
   44df8:	b0000020 	adrp	x0, 49000 <asm_print_str+0x14>
   44dfc:	911e8800 	add	x0, x0, #0x7a2
   44e00:	94000c09 	bl	47e24 <tf_printf>
   44e04:	d2828501 	mov	x1, #0x1428                	// #5160
   44e08:	d2858002 	mov	x2, #0x2c00                	// #11264
   44e0c:	f2a03e01 	movk	x1, #0x1f0, lsl #16
   44e10:	f2a03e02 	movk	x2, #0x1f0, lsl #16
   44e14:	b9400020 	ldr	w0, [x1]
   44e18:	32000000 	orr	w0, w0, #0x1
   44e1c:	b9000020 	str	w0, [x1]
   44e20:	b9400040 	ldr	w0, [x2]
   44e24:	12001c03 	and	w3, w0, #0xff
   44e28:	7100cc7f 	cmp	w3, #0x33
   44e2c:	540001e1 	b.ne	44e68 <sunxi_pmic_setup+0x80>  // b.any
   44e30:	b0000020 	adrp	x0, 49000 <asm_print_str+0x14>
   44e34:	911f0400 	add	x0, x0, #0x7c1
   44e38:	94000bfb 	bl	47e24 <tf_printf>
   44e3c:	128001e0 	mov	w0, #0xfffffff0            	// #-16
   44e40:	7100001f 	cmp	w0, #0x0
   44e44:	3a511804 	ccmn	w0, #0x11, #0x4, ne  // ne = any
   44e48:	540006c0 	b.eq	44f20 <sunxi_pmic_setup+0x138>  // b.none
   44e4c:	b0000020 	adrp	x0, 49000 <asm_print_str+0x14>
   44e50:	91204400 	add	x0, x0, #0x811
   44e54:	94000bf4 	bl	47e24 <tf_printf>
   44e58:	12800000 	mov	w0, #0xffffffff            	// #-1
   44e5c:	a94153f3 	ldp	x19, x20, [sp, #16]
   44e60:	a8c27bfd 	ldp	x29, x30, [sp], #32
   44e64:	d65f03c0 	ret
   44e68:	7100887f 	cmp	w3, #0x22
   44e6c:	540000c1 	b.ne	44e84 <sunxi_pmic_setup+0x9c>  // b.any
   44e70:	b0000020 	adrp	x0, 49000 <asm_print_str+0x14>
   44e74:	911f9800 	add	x0, x0, #0x7e6
   44e78:	94000beb 	bl	47e24 <tf_printf>
   44e7c:	12800200 	mov	w0, #0xffffffef            	// #-17
   44e80:	17fffff0 	b	44e40 <sunxi_pmic_setup+0x58>
   44e84:	12185c00 	and	w0, w0, #0xffffff00
   44e88:	52800443 	mov	w3, #0x22                  	// #34
   44e8c:	2a030000 	orr	w0, w0, w3
   44e90:	b9000040 	str	w0, [x2]
   44e94:	d2858282 	mov	x2, #0x2c14                	// #11284
   44e98:	52800143 	mov	w3, #0xa                   	// #10
   44e9c:	f2a03e02 	movk	x2, #0x1f0, lsl #16
   44ea0:	b9400040 	ldr	w0, [x2]
   44ea4:	121c6c00 	and	w0, w0, #0xfffffff0
   44ea8:	2a030000 	orr	w0, w0, w3
   44eac:	b9000040 	str	w0, [x2]
   44eb0:	528000a3 	mov	w3, #0x5                   	// #5
   44eb4:	b9400840 	ldr	w0, [x2, #8]
   44eb8:	121c6c00 	and	w0, w0, #0xfffffff0
   44ebc:	2a030000 	orr	w0, w0, w3
   44ec0:	b9000840 	str	w0, [x2, #8]
   44ec4:	d2829600 	mov	x0, #0x14b0                	// #5296
   44ec8:	f2a03e00 	movk	x0, #0x1f0, lsl #16
   44ecc:	b9400002 	ldr	w2, [x0]
   44ed0:	121c7842 	and	w2, w2, #0xfffffff7
   44ed4:	b9000002 	str	w2, [x0]
   44ed8:	b9400002 	ldr	w2, [x0]
   44edc:	321d0042 	orr	w2, w2, #0x8
   44ee0:	b9000002 	str	w2, [x0]
   44ee4:	528023a2 	mov	w2, #0x11d                 	// #285
   44ee8:	b9400020 	ldr	w0, [x1]
   44eec:	321d0000 	orr	w0, w0, #0x8
   44ef0:	b9000020 	str	w0, [x1]
   44ef4:	d2868000 	mov	x0, #0x3400                	// #13312
   44ef8:	52800021 	mov	w1, #0x1                   	// #1
   44efc:	f2a03e00 	movk	x0, #0x1f0, lsl #16
   44f00:	b9000001 	str	w1, [x0]
   44f04:	d2868081 	mov	x1, #0x3404                	// #13316
   44f08:	f2a03e01 	movk	x1, #0x1f0, lsl #16
   44f0c:	b9000022 	str	w2, [x1]
   44f10:	b9400001 	ldr	w1, [x0]
   44f14:	3707ffe1 	tbnz	w1, #0, 44f10 <sunxi_pmic_setup+0x128>
   44f18:	52800000 	mov	w0, #0x0                   	// #0
   44f1c:	17ffffc9 	b	44e40 <sunxi_pmic_setup+0x58>
   44f20:	3100441f 	cmn	w0, #0x11
   44f24:	54000740 	b.eq	4500c <sunxi_pmic_setup+0x224>  // b.none
   44f28:	d2868500 	mov	x0, #0x3428                	// #13352
   44f2c:	5287c001 	mov	w1, #0x3e00                	// #15872
   44f30:	f2a03e00 	movk	x0, #0x1f0, lsl #16
   44f34:	72b00f81 	movk	w1, #0x807c, lsl #16
   44f38:	b9000001 	str	w1, [x0]
   44f3c:	b9400001 	ldr	w1, [x0]
   44f40:	37ffffe1 	tbnz	w1, #31, 44f3c <sunxi_pmic_setup+0x154>
   44f44:	d2868080 	mov	x0, #0x3404                	// #13316
   44f48:	52802061 	mov	w1, #0x103                 	// #259
   44f4c:	f2a03e00 	movk	x0, #0x1f0, lsl #16
   44f50:	b9000001 	str	w1, [x0]
   44f54:	52807461 	mov	w1, #0x3a3                 	// #931
   44f58:	72a005a1 	movk	w1, #0x2d, lsl #16
   44f5c:	b9002c01 	str	w1, [x0, #44]
   44f60:	d2868580 	mov	x0, #0x342c                	// #13356
   44f64:	52801d01 	mov	w1, #0xe8                  	// #232
   44f68:	f2a03e00 	movk	x0, #0x1f0, lsl #16
   44f6c:	b9000001 	str	w1, [x0]
   44f70:	d2868000 	mov	x0, #0x3400                	// #13312
   44f74:	f2a03e00 	movk	x0, #0x1f0, lsl #16
   44f78:	52801001 	mov	w1, #0x80                  	// #128
   44f7c:	b9000001 	str	w1, [x0]
   44f80:	b9400001 	ldr	w1, [x0]
   44f84:	373fffe1 	tbnz	w1, #7, 44f80 <sunxi_pmic_setup+0x198>
   44f88:	d2868180 	mov	x0, #0x340c                	// #13324
   44f8c:	f2a03e00 	movk	x0, #0x1f0, lsl #16
   44f90:	b9400002 	ldr	w2, [x0]
   44f94:	7100045f 	cmp	w2, #0x1
   44f98:	540000c0 	b.eq	44fb0 <sunxi_pmic_setup+0x1c8>  // b.none
   44f9c:	b0000021 	adrp	x1, 49000 <asm_print_str+0x14>
   44fa0:	b0000020 	adrp	x0, 49000 <asm_print_str+0x14>
   44fa4:	9120e821 	add	x1, x1, #0x83a
   44fa8:	91213c00 	add	x0, x0, #0x84f
   44fac:	94000b9e 	bl	47e24 <tf_printf>
   44fb0:	d2868600 	mov	x0, #0x3430                	// #13360
   44fb4:	52a005a1 	mov	w1, #0x2d0000              	// #2949120
   44fb8:	f2a03e00 	movk	x0, #0x1f0, lsl #16
   44fbc:	b9000001 	str	w1, [x0]
   44fc0:	52800060 	mov	w0, #0x3                   	// #3
   44fc4:	97ffff54 	bl	44d14 <sunxi_pmic_read>
   44fc8:	2a0003e1 	mov	w1, w0
   44fcc:	36f80120 	tbz	w0, #31, 44ff0 <sunxi_pmic_setup+0x208>
   44fd0:	b0000020 	adrp	x0, 49000 <asm_print_str+0x14>
   44fd4:	91218800 	add	x0, x0, #0x862
   44fd8:	94000b93 	bl	47e24 <tf_printf>
   44fdc:	b0000020 	adrp	x0, 49000 <asm_print_str+0x14>
   44fe0:	9122ec00 	add	x0, x0, #0x8bb
   44fe4:	94000b90 	bl	47e24 <tf_printf>
   44fe8:	12800020 	mov	w0, #0xfffffffe            	// #-2
   44fec:	17ffff9c 	b	44e5c <sunxi_pmic_setup+0x74>
   44ff0:	528019e0 	mov	w0, #0xcf                  	// #207
   44ff4:	0a000020 	and	w0, w1, w0
   44ff8:	7101041f 	cmp	w0, #0x41
   44ffc:	54000080 	b.eq	4500c <sunxi_pmic_setup+0x224>  // b.none
   45000:	90000020 	adrp	x0, 49000 <asm_print_str+0x14>
   45004:	91223400 	add	x0, x0, #0x88d
   45008:	17fffff4 	b	44fd8 <sunxi_pmic_setup+0x1f0>
   4500c:	52800400 	mov	w0, #0x20                  	// #32
   45010:	97ffff41 	bl	44d14 <sunxi_pmic_read>
   45014:	7100441f 	cmp	w0, #0x11
   45018:	54000080 	b.eq	45028 <sunxi_pmic_setup+0x240>  // b.none
   4501c:	52800221 	mov	w1, #0x11                  	// #17
   45020:	52800400 	mov	w0, #0x20                  	// #32
   45024:	97ffff58 	bl	44d84 <sunxi_pmic_write>
   45028:	52800240 	mov	w0, #0x12                  	// #18
   4502c:	97ffff3a 	bl	44d14 <sunxi_pmic_read>
   45030:	52801b22 	mov	w2, #0xd9                  	// #217
   45034:	0a020002 	and	w2, w0, w2
   45038:	7103645f 	cmp	w2, #0xd9
   4503c:	540000a0 	b.eq	45050 <sunxi_pmic_setup+0x268>  // b.none
   45040:	128004e1 	mov	w1, #0xffffffd8            	// #-40
   45044:	2a010001 	orr	w1, w0, w1
   45048:	52800240 	mov	w0, #0x12                  	// #18
   4504c:	97ffff4e 	bl	44d84 <sunxi_pmic_write>
   45050:	52800480 	mov	w0, #0x24                  	// #36
   45054:	97ffff30 	bl	44d14 <sunxi_pmic_read>
   45058:	90000021 	adrp	x1, 49000 <asm_print_str+0x14>
   4505c:	12001813 	and	w19, w0, #0x7f
   45060:	91239021 	add	x1, x1, #0x8e4
   45064:	aa1403e0 	mov	x0, x20
   45068:	94000c56 	bl	481c0 <strcmp>
   4506c:	35000a20 	cbnz	w0, 451b0 <sunxi_pmic_setup+0x3c8>
   45070:	71009a7f 	cmp	w19, #0x26
   45074:	540009e1 	b.ne	451b0 <sunxi_pmic_setup+0x3c8>  // b.any
   45078:	52800593 	mov	w19, #0x2c                  	// #44
   4507c:	90000020 	adrp	x0, 49000 <asm_print_str+0x14>
   45080:	9123d800 	add	x0, x0, #0x8f6
   45084:	94000b68 	bl	47e24 <tf_printf>
   45088:	52800581 	mov	w1, #0x2c                  	// #44
   4508c:	52800480 	mov	w0, #0x24                  	// #36
   45090:	97ffff3d 	bl	44d84 <sunxi_pmic_write>
   45094:	11006273 	add	w19, w19, #0x18
   45098:	531f7a73 	lsl	w19, w19, #1
   4509c:	52800c83 	mov	w3, #0x64                  	// #100
   450a0:	b0000020 	adrp	x0, 4a000 <__func__.2258+0x12>
   450a4:	b0000022 	adrp	x2, 4a000 <__func__.2258+0x12>
   450a8:	911b8800 	add	x0, x0, #0x6e2
   450ac:	1ac30a61 	udiv	w1, w19, w3
   450b0:	9112ec42 	add	x2, x2, #0x4bb
   450b4:	1b03cc23 	msub	w3, w1, w3, w19
   450b8:	7100287f 	cmp	w3, #0xa
   450bc:	9a808042 	csel	x2, x2, x0, hi  // hi = pmore
   450c0:	90000020 	adrp	x0, 49000 <asm_print_str+0x14>
   450c4:	9124b800 	add	x0, x0, #0x92e
   450c8:	94000b57 	bl	47e24 <tf_printf>
   450cc:	90000021 	adrp	x1, 49000 <asm_print_str+0x14>
   450d0:	aa1403e0 	mov	x0, x20
   450d4:	91255421 	add	x1, x1, #0x955
   450d8:	94000c3a 	bl	481c0 <strcmp>
   450dc:	35000280 	cbnz	w0, 4512c <sunxi_pmic_setup+0x344>
   450e0:	52800241 	mov	w1, #0x12                  	// #18
   450e4:	528002c0 	mov	w0, #0x16                  	// #22
   450e8:	97ffff27 	bl	44d84 <sunxi_pmic_write>
   450ec:	52800240 	mov	w0, #0x12                  	// #18
   450f0:	97ffff09 	bl	44d14 <sunxi_pmic_read>
   450f4:	321c0001 	orr	w1, w0, #0x10
   450f8:	52800240 	mov	w0, #0x12                  	// #18
   450fc:	97ffff22 	bl	44d84 <sunxi_pmic_write>
   45100:	52800141 	mov	w1, #0xa                   	// #10
   45104:	52800380 	mov	w0, #0x1c                  	// #28
   45108:	97ffff1f 	bl	44d84 <sunxi_pmic_write>
   4510c:	52800260 	mov	w0, #0x13                  	// #19
   45110:	97ffff01 	bl	44d14 <sunxi_pmic_read>
   45114:	321e0001 	orr	w1, w0, #0x4
   45118:	52800260 	mov	w0, #0x13                  	// #19
   4511c:	97ffff1a 	bl	44d84 <sunxi_pmic_write>
   45120:	90000020 	adrp	x0, 49000 <asm_print_str+0x14>
   45124:	9125a400 	add	x0, x0, #0x969
   45128:	94000b3f 	bl	47e24 <tf_printf>
   4512c:	90000021 	adrp	x1, 49000 <asm_print_str+0x14>
   45130:	aa1403e0 	mov	x0, x20
   45134:	91264821 	add	x1, x1, #0x992
   45138:	94000c22 	bl	481c0 <strcmp>
   4513c:	350002a0 	cbnz	w0, 45190 <sunxi_pmic_setup+0x3a8>
   45140:	52800241 	mov	w1, #0x12                  	// #18
   45144:	528002c0 	mov	w0, #0x16                  	// #22
   45148:	97ffff0f 	bl	44d84 <sunxi_pmic_write>
   4514c:	528000a1 	mov	w1, #0x5                   	// #5
   45150:	528002e0 	mov	w0, #0x17                  	// #23
   45154:	97ffff0c 	bl	44d84 <sunxi_pmic_write>
   45158:	52800240 	mov	w0, #0x12                  	// #18
   4515c:	97fffeee 	bl	44d14 <sunxi_pmic_read>
   45160:	12001c13 	and	w19, w0, #0xff
   45164:	52800240 	mov	w0, #0x12                  	// #18
   45168:	321c0261 	orr	w1, w19, #0x10
   4516c:	97ffff06 	bl	44d84 <sunxi_pmic_write>
   45170:	52807d00 	mov	w0, #0x3e8                 	// #1000
   45174:	94000035 	bl	45248 <udelay>
   45178:	321c0661 	orr	w1, w19, #0x30
   4517c:	52800240 	mov	w0, #0x12                  	// #18
   45180:	97ffff01 	bl	44d84 <sunxi_pmic_write>
   45184:	90000020 	adrp	x0, 49000 <asm_print_str+0x14>
   45188:	91269400 	add	x0, x0, #0x9a5
   4518c:	94000b26 	bl	47e24 <tf_printf>
   45190:	52800341 	mov	w1, #0x1a                  	// #26
   45194:	528002a0 	mov	w0, #0x15                  	// #21
   45198:	97fffefb 	bl	44d84 <sunxi_pmic_write>
   4519c:	90000020 	adrp	x0, 49000 <asm_print_str+0x14>
   451a0:	91274c00 	add	x0, x0, #0x9d3
   451a4:	94000b20 	bl	47e24 <tf_printf>
   451a8:	52800000 	mov	w0, #0x0                   	// #0
   451ac:	17ffff2c 	b	44e5c <sunxi_pmic_setup+0x74>
   451b0:	7100827f 	cmp	w19, #0x20
   451b4:	54fff708 	b.hi	45094 <sunxi_pmic_setup+0x2ac>  // b.pmore
   451b8:	11014273 	add	w19, w19, #0x50
   451bc:	17ffffb8 	b	4509c <sunxi_pmic_setup+0x2b4>

00000000000451c0 <sun50i_power_switch_set.part.0>:
   451c0:	11014021 	add	w1, w1, #0x50
   451c4:	0b000820 	add	w0, w1, w0, lsl #2
   451c8:	52828001 	mov	w1, #0x1400                	// #5120
   451cc:	72a03e01 	movk	w1, #0x1f0, lsl #16
   451d0:	0b000820 	add	w0, w1, w0, lsl #2
   451d4:	b9400001 	ldr	w1, [x0]
   451d8:	34000361 	cbz	w1, 45244 <sun50i_power_switch_set.part.0+0x84>
   451dc:	52801fc1 	mov	w1, #0xfe                  	// #254
   451e0:	d289c402 	mov	x2, #0x4e20                	// #20000
   451e4:	b9000001 	str	w1, [x0]
   451e8:	aa0203e1 	mov	x1, x2
   451ec:	f1000421 	subs	x1, x1, #0x1
   451f0:	54ffffe1 	b.ne	451ec <sun50i_power_switch_set.part.0+0x2c>  // b.any
   451f4:	52801f01 	mov	w1, #0xf8                  	// #248
   451f8:	b9000001 	str	w1, [x0]
   451fc:	d284e201 	mov	x1, #0x2710                	// #10000
   45200:	aa0103e3 	mov	x3, x1
   45204:	f1000463 	subs	x3, x3, #0x1
   45208:	54ffffe1 	b.ne	45204 <sun50i_power_switch_set.part.0+0x44>  // b.any
   4520c:	52801c03 	mov	w3, #0xe0                  	// #224
   45210:	b9000003 	str	w3, [x0]
   45214:	aa0103e3 	mov	x3, x1
   45218:	f1000463 	subs	x3, x3, #0x1
   4521c:	54ffffe1 	b.ne	45218 <sun50i_power_switch_set.part.0+0x58>  // b.any
   45220:	52801003 	mov	w3, #0x80                  	// #128
   45224:	b9000003 	str	w3, [x0]
   45228:	f1000421 	subs	x1, x1, #0x1
   4522c:	54ffffe1 	b.ne	45228 <sun50i_power_switch_set.part.0+0x68>  // b.any
   45230:	b900001f 	str	wzr, [x0]
   45234:	f1000442 	subs	x2, x2, #0x1
   45238:	54ffffe1 	b.ne	45234 <sun50i_power_switch_set.part.0+0x74>  // b.any
   4523c:	b9400001 	ldr	w1, [x0]
   45240:	35ffffe1 	cbnz	w1, 4523c <sun50i_power_switch_set.part.0+0x7c>
   45244:	d65f03c0 	ret

0000000000045248 <udelay>:
   45248:	340000a0 	cbz	w0, 4525c <udelay+0x14>
   4524c:	52807d01 	mov	w1, #0x3e8                 	// #1000
   45250:	9ba17c00 	umull	x0, w0, w1
   45254:	f1000400 	subs	x0, x0, #0x1
   45258:	54ffffe1 	b.ne	45254 <udelay+0xc>  // b.any
   4525c:	d65f03c0 	ret

0000000000045260 <sun50i_set_secondary_entry>:
   45260:	11005021 	add	w1, w1, #0x14
   45264:	52a02e02 	mov	w2, #0x1700000             	// #24117248
   45268:	531d7021 	lsl	w1, w1, #3
   4526c:	0b020022 	add	w2, w1, w2
   45270:	b9000040 	str	w0, [x2]
   45274:	52800080 	mov	w0, #0x4                   	// #4
   45278:	72a02e00 	movk	w0, #0x170, lsl #16
   4527c:	0b000021 	add	w1, w1, w0
   45280:	b900003f 	str	wzr, [x1]
   45284:	d65f03c0 	ret

0000000000045288 <sun50i_set_AA32nAA64>:
   45288:	52a02e03 	mov	w3, #0x1700000             	// #24117248
   4528c:	d10043ff 	sub	sp, sp, #0x10
   45290:	0b001060 	add	w0, w3, w0, lsl #4
   45294:	11006021 	add	w1, w1, #0x18
   45298:	b9400003 	ldr	w3, [x0]
   4529c:	b9000fe3 	str	w3, [sp, #12]
   452a0:	52800023 	mov	w3, #0x1                   	// #1
   452a4:	b9400fe4 	ldr	w4, [sp, #12]
   452a8:	1ac12063 	lsl	w3, w3, w1
   452ac:	1ac12041 	lsl	w1, w2, w1
   452b0:	0a230083 	bic	w3, w4, w3
   452b4:	b9000fe3 	str	w3, [sp, #12]
   452b8:	b9400fe3 	ldr	w3, [sp, #12]
   452bc:	2a030021 	orr	w1, w1, w3
   452c0:	b9000fe1 	str	w1, [sp, #12]
   452c4:	b9400fe1 	ldr	w1, [sp, #12]
   452c8:	b9000001 	str	w1, [x0]
   452cc:	b9400000 	ldr	w0, [x0]
   452d0:	b9000fe0 	str	w0, [sp, #12]
   452d4:	910043ff 	add	sp, sp, #0x10
   452d8:	d65f03c0 	ret

00000000000452dc <sun50i_power_switch_set>:
   452dc:	340000e2 	cbz	w2, 452f8 <sun50i_power_switch_set+0x1c>
   452e0:	a9bf7bfd 	stp	x29, x30, [sp, #-16]!
   452e4:	910003fd 	mov	x29, sp
   452e8:	97ffffb6 	bl	451c0 <sun50i_power_switch_set.part.0>
   452ec:	52800000 	mov	w0, #0x0                   	// #0
   452f0:	a8c17bfd 	ldp	x29, x30, [sp], #16
   452f4:	d65f03c0 	ret
   452f8:	2a0003e3 	mov	w3, w0
   452fc:	11014020 	add	w0, w1, #0x50
   45300:	0b030800 	add	w0, w0, w3, lsl #2
   45304:	52828003 	mov	w3, #0x1400                	// #5120
   45308:	72a03e03 	movk	w3, #0x1f0, lsl #16
   4530c:	0b000860 	add	w0, w3, w0, lsl #2
   45310:	b9400001 	ldr	w1, [x0]
   45314:	7103fc3f 	cmp	w1, #0xff
   45318:	54000120 	b.eq	4533c <sun50i_power_switch_set+0x60>  // b.none
   4531c:	52801fe1 	mov	w1, #0xff                  	// #255
   45320:	b9000001 	str	w1, [x0]
   45324:	d28ea601 	mov	x1, #0x7530                	// #30000
   45328:	f1000421 	subs	x1, x1, #0x1
   4532c:	54ffffe1 	b.ne	45328 <sun50i_power_switch_set+0x4c>  // b.any
   45330:	b9400001 	ldr	w1, [x0]
   45334:	7103fc3f 	cmp	w1, #0xff
   45338:	54ffffc1 	b.ne	45330 <sun50i_power_switch_set+0x54>  // b.any
   4533c:	52800000 	mov	w0, #0x0                   	// #0
   45340:	d65f03c0 	ret

0000000000045344 <sun50i_cpu_power_up>:
   45344:	11008005 	add	w5, w0, #0x20
   45348:	52a02e06 	mov	w6, #0x1700000             	// #24117248
   4534c:	a9be7bfd 	stp	x29, x30, [sp, #-32]!
   45350:	52800022 	mov	w2, #0x1                   	// #1
   45354:	531e74a5 	lsl	w5, w5, #2
   45358:	1ac1204a 	lsl	w10, w2, w1
   4535c:	0b0600a6 	add	w6, w5, w6
   45360:	910003fd 	mov	x29, sp
   45364:	2a2a03e8 	mvn	w8, w10
   45368:	d284e209 	mov	x9, #0x2710                	// #10000
   4536c:	2a0003eb 	mov	w11, w0
   45370:	b94000c3 	ldr	w3, [x6]
   45374:	2a0103ec 	mov	w12, w1
   45378:	f9000bf3 	str	x19, [sp, #16]
   4537c:	0a030103 	and	w3, w8, w3
   45380:	b90000c3 	str	w3, [x6]
   45384:	aa0903e3 	mov	x3, x9
   45388:	f1000463 	subs	x3, x3, #0x1
   4538c:	54ffffe1 	b.ne	45388 <sun50i_cpu_power_up+0x44>  // b.any
   45390:	52837607 	mov	w7, #0x1bb0                	// #7088
   45394:	72a03e07 	movk	w7, #0x1f0, lsl #16
   45398:	0b0700a7 	add	w7, w5, w7
   4539c:	b94000e3 	ldr	w3, [x7]
   453a0:	0a030103 	and	w3, w8, w3
   453a4:	b90000e3 	str	w3, [x7]
   453a8:	aa0903e3 	mov	x3, x9
   453ac:	f1000463 	subs	x3, x3, #0x1
   453b0:	54ffffe1 	b.ne	453ac <sun50i_cpu_power_up+0x68>  // b.any
   453b4:	97ffffb5 	bl	45288 <sun50i_set_AA32nAA64>
   453b8:	2a0b03e0 	mov	w0, w11
   453bc:	2a0c03e1 	mov	w1, w12
   453c0:	97ffff80 	bl	451c0 <sun50i_power_switch_set.part.0>
   453c4:	52829000 	mov	w0, #0x1480                	// #5248
   453c8:	72a03e00 	movk	w0, #0x1f0, lsl #16
   453cc:	0b0000a5 	add	w5, w5, w0
   453d0:	b94000a0 	ldr	w0, [x5]
   453d4:	0a000108 	and	w8, w8, w0
   453d8:	d289c400 	mov	x0, #0x4e20                	// #20000
   453dc:	b90000a8 	str	w8, [x5]
   453e0:	f1000400 	subs	x0, x0, #0x1
   453e4:	54ffffe1 	b.ne	453e0 <sun50i_cpu_power_up+0x9c>  // b.any
   453e8:	b94000e0 	ldr	w0, [x7]
   453ec:	2a000140 	orr	w0, w10, w0
   453f0:	b90000e0 	str	w0, [x7]
   453f4:	aa0903e0 	mov	x0, x9
   453f8:	f1000400 	subs	x0, x0, #0x1
   453fc:	54ffffe1 	b.ne	453f8 <sun50i_cpu_power_up+0xb4>  // b.any
   45400:	b94000c0 	ldr	w0, [x6]
   45404:	2a000140 	orr	w0, w10, w0
   45408:	b90000c0 	str	w0, [x6]
   4540c:	aa0903e0 	mov	x0, x9
   45410:	f1000400 	subs	x0, x0, #0x1
   45414:	54ffffe1 	b.ne	45410 <sun50i_cpu_power_up+0xcc>  // b.any
   45418:	d2800401 	mov	x1, #0x20                  	// #32
   4541c:	f2a02e01 	movk	x1, #0x170, lsl #16
   45420:	b9400020 	ldr	w0, [x1]
   45424:	2a000140 	orr	w0, w10, w0
   45428:	b9000020 	str	w0, [x1]
   4542c:	f1000529 	subs	x9, x9, #0x1
   45430:	54ffffe1 	b.ne	4542c <sun50i_cpu_power_up+0xe8>  // b.any
   45434:	b0000073 	adrp	x19, 52000 <plat_console_lock>
   45438:	91000273 	add	x19, x19, #0x0
   4543c:	aa1303e0 	mov	x0, x19
   45440:	9400029e 	bl	45eb8 <bakery_lock_get>
   45444:	aa1303e0 	mov	x0, x19
   45448:	f9400bf3 	ldr	x19, [sp, #16]
   4544c:	a8c27bfd 	ldp	x29, x30, [sp], #32
   45450:	140002e5 	b	45fe4 <bakery_lock_release>

0000000000045454 <sun50i_cpu_power_down>:
   45454:	d2800406 	mov	x6, #0x20                  	// #32
   45458:	a9be7bfd 	stp	x29, x30, [sp, #-32]!
   4545c:	f2a02e06 	movk	x6, #0x170, lsl #16
   45460:	52800024 	mov	w4, #0x1                   	// #1
   45464:	910003fd 	mov	x29, sp
   45468:	b94000c3 	ldr	w3, [x6]
   4546c:	1ac12084 	lsl	w4, w4, w1
   45470:	2a2403e5 	mvn	w5, w4
   45474:	f9000bf3 	str	x19, [sp, #16]
   45478:	0a0300a3 	and	w3, w5, w3
   4547c:	b90000c3 	str	w3, [x6]
   45480:	d284e206 	mov	x6, #0x2710                	// #10000
   45484:	aa0603e3 	mov	x3, x6
   45488:	f1000463 	subs	x3, x3, #0x1
   4548c:	54ffffe1 	b.ne	45488 <sun50i_cpu_power_down+0x34>  // b.any
   45490:	11010002 	add	w2, w0, #0x40
   45494:	52828003 	mov	w3, #0x1400                	// #5120
   45498:	72a03e03 	movk	w3, #0x1f0, lsl #16
   4549c:	531e7442 	lsl	w2, w2, #2
   454a0:	0b030043 	add	w3, w2, w3
   454a4:	b9400067 	ldr	w7, [x3]
   454a8:	2a070084 	orr	w4, w4, w7
   454ac:	b9000064 	str	w4, [x3]
   454b0:	d289c403 	mov	x3, #0x4e20                	// #20000
   454b4:	f1000463 	subs	x3, x3, #0x1
   454b8:	54ffffe1 	b.ne	454b4 <sun50i_cpu_power_down+0x60>  // b.any
   454bc:	529ff003 	mov	w3, #0xff80                	// #65408
   454c0:	72a02de3 	movk	w3, #0x16f, lsl #16
   454c4:	0b030042 	add	w2, w2, w3
   454c8:	b9400043 	ldr	w3, [x2]
   454cc:	0a0300a5 	and	w5, w5, w3
   454d0:	b9000045 	str	w5, [x2]
   454d4:	f10004c6 	subs	x6, x6, #0x1
   454d8:	54ffffe1 	b.ne	454d4 <sun50i_cpu_power_down+0x80>  // b.any
   454dc:	52800002 	mov	w2, #0x0                   	// #0
   454e0:	b0000073 	adrp	x19, 52000 <plat_console_lock>
   454e4:	97ffff7e 	bl	452dc <sun50i_power_switch_set>
   454e8:	91000273 	add	x19, x19, #0x0
   454ec:	aa1303e0 	mov	x0, x19
   454f0:	94000272 	bl	45eb8 <bakery_lock_get>
   454f4:	aa1303e0 	mov	x0, x19
   454f8:	f9400bf3 	ldr	x19, [sp, #16]
   454fc:	a8c27bfd 	ldp	x29, x30, [sp], #32
   45500:	140002b9 	b	45fe4 <bakery_lock_release>

0000000000045504 <plat_get_aff_count>:
   45504:	7100001f 	cmp	w0, #0x0
   45508:	52800080 	mov	w0, #0x4                   	// #4
   4550c:	1a9f0400 	csinc	w0, w0, wzr, eq  // eq = none
   45510:	d65f03c0 	ret

0000000000045514 <plat_get_aff_state>:
   45514:	7100001f 	cmp	w0, #0x0
   45518:	1a9f17e0 	cset	w0, eq  // eq = none
   4551c:	d65f03c0 	ret

0000000000045520 <plat_get_max_afflvl>:
   45520:	52800000 	mov	w0, #0x0                   	// #0
   45524:	d65f03c0 	ret

0000000000045528 <plat_setup_topology>:
   45528:	52800000 	mov	w0, #0x0                   	// #0
   4552c:	d65f03c0 	ret

0000000000045530 <sunxi_setup_clocks>:
   45530:	d2800501 	mov	x1, #0x28                  	// #40
   45534:	a9be7bfd 	stp	x29, x30, [sp, #-32]!
   45538:	f2a03841 	movk	x1, #0x1c2, lsl #16
   4553c:	52830222 	mov	w2, #0x1811                	// #6161
   45540:	910003fd 	mov	x29, sp
   45544:	b9400020 	ldr	w0, [x1]
   45548:	72a00082 	movk	w2, #0x4, lsl #16
   4554c:	f9000bf3 	str	x19, [sp, #16]
   45550:	12006c00 	and	w0, w0, #0xfffffff
   45554:	6b02001f 	cmp	w0, w2
   45558:	54000080 	b.eq	45568 <sunxi_setup_clocks+0x38>  // b.none
   4555c:	52830220 	mov	w0, #0x1811                	// #6161
   45560:	72b00080 	movk	w0, #0x8004, lsl #16
   45564:	b9000020 	str	w0, [x1]
   45568:	d2800a13 	mov	x19, #0x50                  	// #80
   4556c:	52804060 	mov	w0, #0x203                 	// #515
   45570:	f2a03853 	movk	x19, #0x1c2, lsl #16
   45574:	72a00020 	movk	w0, #0x1, lsl #16
   45578:	b9000260 	str	w0, [x19]
   4557c:	52800280 	mov	w0, #0x14                  	// #20
   45580:	97ffff32 	bl	45248 <udelay>
   45584:	d2a03840 	mov	x0, #0x1c20000             	// #29491200
   45588:	52820201 	mov	w1, #0x1010                	// #4112
   4558c:	b9000001 	str	w1, [x0]
   45590:	b9400001 	ldr	w1, [x0]
   45594:	32010021 	orr	w1, w1, #0x80000000
   45598:	b9000001 	str	w1, [x0]
   4559c:	b9400001 	ldr	w1, [x0]
   455a0:	36e7ffe1 	tbz	w1, #28, 4559c <sunxi_setup_clocks+0x6c>
   455a4:	52800280 	mov	w0, #0x14                  	// #20
   455a8:	97ffff28 	bl	45248 <udelay>
   455ac:	b9400260 	ldr	w0, [x19]
   455b0:	120e7400 	and	w0, w0, #0xfffcffff
   455b4:	320f0000 	orr	w0, w0, #0x20000
   455b8:	b9000260 	str	w0, [x19]
   455bc:	52807d00 	mov	w0, #0x3e8                 	// #1000
   455c0:	97ffff22 	bl	45248 <udelay>
   455c4:	f9400bf3 	ldr	x19, [sp, #16]
   455c8:	d2800a80 	mov	x0, #0x54                  	// #84
   455cc:	52863001 	mov	w1, #0x3180                	// #12672
   455d0:	f2a03840 	movk	x0, #0x1c2, lsl #16
   455d4:	b9000001 	str	w1, [x0]
   455d8:	52a02001 	mov	w1, #0x1000000             	// #16777216
   455dc:	b9000401 	str	w1, [x0, #4]
   455e0:	52800021 	mov	w1, #0x1                   	// #1
   455e4:	b9000801 	str	w1, [x0, #8]
   455e8:	52800000 	mov	w0, #0x0                   	// #0
   455ec:	a8c27bfd 	ldp	x29, x30, [sp], #32
   455f0:	d65f03c0 	ret

00000000000455f4 <sunxi_plat_sip_handler>:
   455f4:	a9be7bfd 	stp	x29, x30, [sp, #-32]!
   455f8:	2a0003e2 	mov	w2, w0
   455fc:	90000021 	adrp	x1, 49000 <asm_print_str+0x14>
   45600:	90000020 	adrp	x0, 49000 <asm_print_str+0x14>
   45604:	910003fd 	mov	x29, sp
   45608:	f9000bf3 	str	x19, [sp, #16]
   4560c:	aa0603f3 	mov	x19, x6
   45610:	9127d021 	add	x1, x1, #0x9f4
   45614:	91286400 	add	x0, x0, #0xa19
   45618:	94000a03 	bl	47e24 <tf_printf>
   4561c:	b2407fe0 	mov	x0, #0xffffffff            	// #4294967295
   45620:	f9000260 	str	x0, [x19]
   45624:	aa1303e0 	mov	x0, x19
   45628:	f9400bf3 	ldr	x19, [sp, #16]
   4562c:	a8c27bfd 	ldp	x29, x30, [sp], #32
   45630:	d65f03c0 	ret

0000000000045634 <sunxi_sip_handler>:
   45634:	aa0603e8 	mov	x8, x6
   45638:	370000a7 	tbnz	w7, #0, 4564c <sunxi_sip_handler+0x18>
   4563c:	b2407fe0 	mov	x0, #0xffffffff            	// #4294967295
   45640:	f9000100 	str	x0, [x8]
   45644:	aa0803e0 	mov	x0, x8
   45648:	d65f03c0 	ret
   4564c:	52800029 	mov	w9, #0x1                   	// #1
   45650:	72b04009 	movk	w9, #0x8200, lsl #16
   45654:	6b09001f 	cmp	w0, w9
   45658:	54ffff20 	b.eq	4563c <sunxi_sip_handler+0x8>  // b.none
   4565c:	17ffffe6 	b	455f4 <sunxi_plat_sip_handler>

0000000000045660 <sip_smc_handler>:
   45660:	529fe02a 	mov	w10, #0xff01                	// #65281
   45664:	aa0603e8 	mov	x8, x6
   45668:	72b0400a 	movk	w10, #0x8200, lsl #16
   4566c:	6b0a001f 	cmp	w0, w10
   45670:	54000180 	b.eq	456a0 <sip_smc_handler+0x40>  // b.none
   45674:	1100094a 	add	w10, w10, #0x2
   45678:	6b0a001f 	cmp	w0, w10
   4567c:	54000260 	b.eq	456c8 <sip_smc_handler+0x68>  // b.none
   45680:	529fe00a 	mov	w10, #0xff00                	// #65280
   45684:	72b0400a 	movk	w10, #0x8200, lsl #16
   45688:	6b0a001f 	cmp	w0, w10
   4568c:	54000241 	b.ne	456d4 <sip_smc_handler+0x74>  // b.any
   45690:	d2800020 	mov	x0, #0x1                   	// #1
   45694:	f9000100 	str	x0, [x8]
   45698:	aa0803e0 	mov	x0, x8
   4569c:	d65f03c0 	ret
   456a0:	90000020 	adrp	x0, 49000 <asm_print_str+0x14>
   456a4:	9128f000 	add	x0, x0, #0xa3c
   456a8:	b9400c01 	ldr	w1, [x0, #12]
   456ac:	f9000cc1 	str	x1, [x6, #24]
   456b0:	b9400801 	ldr	w1, [x0, #8]
   456b4:	b9400400 	ldr	w0, [x0, #4]
   456b8:	a90084c0 	stp	x0, x1, [x6, #8]
   456bc:	d28dc120 	mov	x0, #0x6e09                	// #28169
   456c0:	f2a0c020 	movk	x0, #0x601, lsl #16
   456c4:	17fffff4 	b	45694 <sip_smc_handler+0x34>
   456c8:	d2800020 	mov	x0, #0x1                   	// #1
   456cc:	a90000df 	stp	xzr, x0, [x6]
   456d0:	17fffff2 	b	45698 <sip_smc_handler+0x38>
   456d4:	17ffffd8 	b	45634 <sunxi_sip_handler>

00000000000456d8 <sunxi_configure_mmu_el3>:
   456d8:	a9bd7bfd 	stp	x29, x30, [sp, #-48]!
   456dc:	910003fd 	mov	x29, sp
   456e0:	a90153f3 	stp	x19, x20, [sp, #16]
   456e4:	aa0403f3 	mov	x19, x4
   456e8:	a9025bf5 	stp	x21, x22, [sp, #32]
   456ec:	aa0203f4 	mov	x20, x2
   456f0:	aa0503f5 	mov	x21, x5
   456f4:	aa0303f6 	mov	x22, x3
   456f8:	aa0103e2 	mov	x2, x1
   456fc:	52800063 	mov	w3, #0x3                   	// #3
   45700:	aa0003e1 	mov	x1, x0
   45704:	94000b34 	bl	483d4 <mmap_add_region>
   45708:	cb1402c2 	sub	x2, x22, x20
   4570c:	aa1403e1 	mov	x1, x20
   45710:	aa1403e0 	mov	x0, x20
   45714:	52800023 	mov	w3, #0x1                   	// #1
   45718:	94000b2f 	bl	483d4 <mmap_add_region>
   4571c:	cb1302a2 	sub	x2, x21, x19
   45720:	aa1303e1 	mov	x1, x19
   45724:	52800043 	mov	w3, #0x2                   	// #2
   45728:	aa1303e0 	mov	x0, x19
   4572c:	94000b2a 	bl	483d4 <mmap_add_region>
   45730:	90000020 	adrp	x0, 49000 <asm_print_str+0x14>
   45734:	91294000 	add	x0, x0, #0xa50
   45738:	94000b72 	bl	48500 <mmap_add>
   4573c:	94000b7f 	bl	48538 <init_xlat_tables>
   45740:	a94153f3 	ldp	x19, x20, [sp, #16]
   45744:	52800000 	mov	w0, #0x0                   	// #0
   45748:	a9425bf5 	ldp	x21, x22, [sp, #32]
   4574c:	a8c37bfd 	ldp	x29, x30, [sp], #48
   45750:	14000bb2 	b	48618 <enable_mmu_el3>

0000000000045754 <plat_get_ns_image_entrypoint>:
   45754:	d2a94000 	mov	x0, #0x4a000000            	// #1241513984
   45758:	d65f03c0 	ret

000000000004575c <plat_get_syscnt_freq>:
   4575c:	d286c000 	mov	x0, #0x3600                	// #13824
   45760:	f2a02dc0 	movk	x0, #0x16e, lsl #16
   45764:	d65f03c0 	ret

0000000000045768 <sunxi_get_spsr_for_bl33_entry>:
   45768:	7100801f 	cmp	w0, #0x20
   4576c:	54000121 	b.ne	45790 <sunxi_get_spsr_for_bl33_entry+0x28>  // b.any
   45770:	d5380120 	mrs	x0, id_pfr1_el1
   45774:	52800061 	mov	w1, #0x3                   	// #3
   45778:	72140c1f 	tst	w0, #0xf000
   4577c:	52800140 	mov	w0, #0xa                   	// #10
   45780:	1a811000 	csel	w0, w0, w1, ne  // ne = any
   45784:	52803a01 	mov	w1, #0x1d0                 	// #464
   45788:	2a010000 	orr	w0, w0, w1
   4578c:	d65f03c0 	ret
   45790:	7101001f 	cmp	w0, #0x40
   45794:	54000101 	b.ne	457b4 <sunxi_get_spsr_for_bl33_entry+0x4c>  // b.any
   45798:	d5380400 	mrs	x0, id_aa64pfr0_el1
   4579c:	72180c1f 	tst	w0, #0xf00
   457a0:	1a9f07e0 	cset	w0, ne  // ne = any
   457a4:	11000400 	add	w0, w0, #0x1
   457a8:	531e0400 	ubfiz	w0, w0, #2, #2
   457ac:	52807821 	mov	w1, #0x3c1                 	// #961
   457b0:	17fffff6 	b	45788 <sunxi_get_spsr_for_bl33_entry+0x20>
   457b4:	12800000 	mov	w0, #0xffffffff            	// #-1
   457b8:	17fffffc 	b	457a8 <sunxi_get_spsr_for_bl33_entry+0x40>

00000000000457bc <sunxi_get_socid>:
   457bc:	d2800481 	mov	x1, #0x24                  	// #36
   457c0:	f2a03801 	movk	x1, #0x1c0, lsl #16
   457c4:	b9400020 	ldr	w0, [x1]
   457c8:	32110000 	orr	w0, w0, #0x8000
   457cc:	b9000020 	str	w0, [x1]
   457d0:	b9400020 	ldr	w0, [x1]
   457d4:	12107802 	and	w2, w0, #0xffff7fff
   457d8:	b9000022 	str	w2, [x1]
   457dc:	53107c00 	lsr	w0, w0, #16
   457e0:	d65f03c0 	ret

00000000000457e4 <get_dt_name>:
   457e4:	d2a00020 	mov	x0, #0x10000               	// #65536
   457e8:	5288eca1 	mov	w1, #0x4765                	// #18277
   457ec:	72a9c9e1 	movk	w1, #0x4e4f, lsl #16
   457f0:	b9400402 	ldr	w2, [x0, #4]
   457f4:	6b01005f 	cmp	w2, w1
   457f8:	540001e1 	b.ne	45834 <get_dt_name+0x50>  // b.any
   457fc:	b9400801 	ldr	w1, [x0, #8]
   45800:	528845c2 	mov	w2, #0x422e                	// #16942
   45804:	72a60a82 	movk	w2, #0x3054, lsl #16
   45808:	6b02003f 	cmp	w1, w2
   4580c:	5288c5c2 	mov	w2, #0x462e                	// #17966
   45810:	72a988a2 	movk	w2, #0x4c45, lsl #16
   45814:	7a421024 	ccmp	w1, w2, #0x4, ne  // ne = any
   45818:	540000e1 	b.ne	45834 <get_dt_name+0x50>  // b.any
   4581c:	39405c01 	ldrb	w1, [x0, #23]
   45820:	7100043f 	cmp	w1, #0x1
   45824:	54000089 	b.ls	45834 <get_dt_name+0x50>  // b.plast
   45828:	b9402000 	ldr	w0, [x0, #32]
   4582c:	91404000 	add	x0, x0, #0x10, lsl #12
   45830:	d65f03c0 	ret
   45834:	d2800000 	mov	x0, #0x0                   	// #0
   45838:	17fffffe 	b	45830 <get_dt_name+0x4c>

000000000004583c <bl31_prepare_next_image_entry>:
   4583c:	a9bd7bfd 	stp	x29, x30, [sp, #-48]!
   45840:	f0000020 	adrp	x0, 4c000 <__RO_END__>
   45844:	910003fd 	mov	x29, sp
   45848:	f90013f5 	str	x21, [sp, #32]
   4584c:	b9400015 	ldr	w21, [x0]
   45850:	a90153f3 	stp	x19, x20, [sp, #16]
   45854:	2a1503e0 	mov	w0, w21
   45858:	97fffbc0 	bl	44758 <bl31_plat_get_next_image_ep_info>
   4585c:	b5000120 	cbnz	x0, 45880 <bl31_prepare_next_image_entry+0x44>
   45860:	90000023 	adrp	x3, 49000 <asm_print_str+0x14>
   45864:	912d8c63 	add	x3, x3, #0xb63
   45868:	528012e2 	mov	w2, #0x97                  	// #151
   4586c:	90000021 	adrp	x1, 49000 <asm_print_str+0x14>
   45870:	90000020 	adrp	x0, 49000 <asm_print_str+0x14>
   45874:	9130ec21 	add	x1, x1, #0xc3b
   45878:	912b4000 	add	x0, x0, #0xad0
   4587c:	94000a1e 	bl	480f4 <__assert>
   45880:	b9400413 	ldr	w19, [x0, #4]
   45884:	aa0003f4 	mov	x20, x0
   45888:	12000273 	and	w19, w19, #0x1
   4588c:	6b15027f 	cmp	w19, w21
   45890:	540000a0 	b.eq	458a4 <bl31_prepare_next_image_entry+0x68>  // b.none
   45894:	90000023 	adrp	x3, 49000 <asm_print_str+0x14>
   45898:	52801302 	mov	w2, #0x98                  	// #152
   4589c:	912dcc63 	add	x3, x3, #0xb73
   458a0:	17fffff3 	b	4586c <bl31_prepare_next_image_entry+0x30>
   458a4:	7100027f 	cmp	w19, #0x0
   458a8:	90000020 	adrp	x0, 49000 <asm_print_str+0x14>
   458ac:	90000021 	adrp	x1, 49000 <asm_print_str+0x14>
   458b0:	912d7000 	add	x0, x0, #0xb5c
   458b4:	912d5421 	add	x1, x1, #0xb55
   458b8:	9a800021 	csel	x1, x1, x0, eq  // eq = none
   458bc:	90000020 	adrp	x0, 49000 <asm_print_str+0x14>
   458c0:	912eb400 	add	x0, x0, #0xbad
   458c4:	94000958 	bl	47e24 <tf_printf>
   458c8:	b9401282 	ldr	w2, [x20, #16]
   458cc:	90000020 	adrp	x0, 49000 <asm_print_str+0x14>
   458d0:	f9400681 	ldr	x1, [x20, #8]
   458d4:	912f8400 	add	x0, x0, #0xbe1
   458d8:	94000953 	bl	47e24 <tf_printf>
   458dc:	d53800a0 	mrs	x0, mpidr_el1
   458e0:	aa1403e1 	mov	x1, x20
   458e4:	9400006e 	bl	45a9c <cm_init_context>
   458e8:	2a1303e0 	mov	w0, w19
   458ec:	f94013f5 	ldr	x21, [sp, #32]
   458f0:	a94153f3 	ldp	x19, x20, [sp, #16]
   458f4:	a8c37bfd 	ldp	x29, x30, [sp], #48
   458f8:	140000ad 	b	45bac <cm_prepare_el3_exit>

00000000000458fc <bl31_main>:
   458fc:	a9be7bfd 	stp	x29, x30, [sp, #-32]!
   45900:	90000021 	adrp	x1, 49000 <asm_print_str+0x14>
   45904:	9109e821 	add	x1, x1, #0x27a
   45908:	910003fd 	mov	x29, sp
   4590c:	f9000bf3 	str	x19, [sp, #16]
   45910:	90000033 	adrp	x19, 49000 <asm_print_str+0x14>
   45914:	912bba73 	add	x19, x19, #0xaee
   45918:	aa1303e0 	mov	x0, x19
   4591c:	94000942 	bl	47e24 <tf_printf>
   45920:	aa1303e0 	mov	x0, x19
   45924:	90000021 	adrp	x1, 49000 <asm_print_str+0x14>
   45928:	91097021 	add	x1, x1, #0x25c
   4592c:	9400093e 	bl	47e24 <tf_printf>
   45930:	90000053 	adrp	x19, 4d000 <__STACKS_START__+0xfc0>
   45934:	94000144 	bl	45e44 <bl31_arch_setup>
   45938:	97fffbe7 	bl	448d4 <bl31_platform_setup>
   4593c:	94000030 	bl	459fc <cm_init>
   45940:	90000020 	adrp	x0, 49000 <asm_print_str+0x14>
   45944:	912c0800 	add	x0, x0, #0xb02
   45948:	94000937 	bl	47e24 <tf_printf>
   4594c:	940000c9 	bl	45c70 <runtime_svc_init>
   45950:	52800040 	mov	w0, #0x2                   	// #2
   45954:	94000e1d 	bl	491c8 <dcsw_op_all>
   45958:	f9405e60 	ldr	x0, [x19, #184]
   4595c:	b40000c0 	cbz	x0, 45974 <bl31_main+0x78>
   45960:	90000020 	adrp	x0, 49000 <asm_print_str+0x14>
   45964:	912cc400 	add	x0, x0, #0xb31
   45968:	9400092f 	bl	47e24 <tf_printf>
   4596c:	f9405e60 	ldr	x0, [x19, #184]
   45970:	d63f0000 	blr	x0
   45974:	f9400bf3 	ldr	x19, [sp, #16]
   45978:	a8c27bfd 	ldp	x29, x30, [sp], #32
   4597c:	17ffffb0 	b	4583c <bl31_prepare_next_image_entry>

0000000000045980 <cm_get_context>:
   45980:	7100041f 	cmp	w0, #0x1
   45984:	54000169 	b.ls	459b0 <cm_get_context+0x30>  // b.plast
   45988:	a9bf7bfd 	stp	x29, x30, [sp, #-16]!
   4598c:	90000023 	adrp	x3, 49000 <asm_print_str+0x14>
   45990:	90000021 	adrp	x1, 49000 <asm_print_str+0x14>
   45994:	90000020 	adrp	x0, 49000 <asm_print_str+0x14>
   45998:	910003fd 	mov	x29, sp
   4599c:	91330c63 	add	x3, x3, #0xcc3
   459a0:	52800942 	mov	w2, #0x4a                  	// #74
   459a4:	91338021 	add	x1, x1, #0xce0
   459a8:	91313000 	add	x0, x0, #0xc4c
   459ac:	940009d2 	bl	480f4 <__assert>
   459b0:	d53ed041 	mrs	x1, tpidr_el3
   459b4:	f8605820 	ldr	x0, [x1, w0, uxtw #3]
   459b8:	d65f03c0 	ret

00000000000459bc <cm_set_next_context>:
   459bc:	d5384201 	mrs	x1, spsel
   459c0:	b4000161 	cbz	x1, 459ec <cm_set_next_context+0x30>
   459c4:	a9bf7bfd 	stp	x29, x30, [sp, #-16]!
   459c8:	90000023 	adrp	x3, 49000 <asm_print_str+0x14>
   459cc:	90000021 	adrp	x1, 49000 <asm_print_str+0x14>
   459d0:	90000020 	adrp	x0, 49000 <asm_print_str+0x14>
   459d4:	910003fd 	mov	x29, sp
   459d8:	91340063 	add	x3, x3, #0xd00
   459dc:	52800d62 	mov	w2, #0x6b                  	// #107
   459e0:	91345c21 	add	x1, x1, #0xd17
   459e4:	91322c00 	add	x0, x0, #0xc8b
   459e8:	940009c3 	bl	480f4 <__assert>
   459ec:	d50041bf 	msr	spsel, #0x1
   459f0:	9100001f 	mov	sp, x0
   459f4:	d50040bf 	msr	spsel, #0x0
   459f8:	d65f03c0 	ret

00000000000459fc <cm_init>:
   459fc:	d65f03c0 	ret

0000000000045a00 <cm_get_context_by_mpidr>:
   45a00:	a9be7bfd 	stp	x29, x30, [sp, #-32]!
   45a04:	7100043f 	cmp	w1, #0x1
   45a08:	910003fd 	mov	x29, sp
   45a0c:	f9000bf3 	str	x19, [sp, #16]
   45a10:	54000129 	b.ls	45a34 <cm_get_context_by_mpidr+0x34>  // b.plast
   45a14:	90000023 	adrp	x3, 49000 <asm_print_str+0x14>
   45a18:	90000021 	adrp	x1, 49000 <asm_print_str+0x14>
   45a1c:	90000020 	adrp	x0, 49000 <asm_print_str+0x14>
   45a20:	91306063 	add	x3, x3, #0xc18
   45a24:	52800942 	mov	w2, #0x4a                  	// #74
   45a28:	91345c21 	add	x1, x1, #0xd17
   45a2c:	91316c00 	add	x0, x0, #0xc5b
   45a30:	940009b1 	bl	480f4 <__assert>
   45a34:	2a0103f3 	mov	w19, w1
   45a38:	94000bd2 	bl	48980 <_cpu_data_by_mpidr>
   45a3c:	f8735800 	ldr	x0, [x0, w19, uxtw #3]
   45a40:	f9400bf3 	ldr	x19, [sp, #16]
   45a44:	a8c27bfd 	ldp	x29, x30, [sp], #32
   45a48:	d65f03c0 	ret

0000000000045a4c <cm_set_context_by_mpidr>:
   45a4c:	a9be7bfd 	stp	x29, x30, [sp, #-32]!
   45a50:	7100045f 	cmp	w2, #0x1
   45a54:	910003fd 	mov	x29, sp
   45a58:	a90153f3 	stp	x19, x20, [sp, #16]
   45a5c:	54000129 	b.ls	45a80 <cm_set_context_by_mpidr+0x34>  // b.plast
   45a60:	90000023 	adrp	x3, 49000 <asm_print_str+0x14>
   45a64:	90000021 	adrp	x1, 49000 <asm_print_str+0x14>
   45a68:	90000020 	adrp	x0, 49000 <asm_print_str+0x14>
   45a6c:	91306063 	add	x3, x3, #0xc18
   45a70:	52800aa2 	mov	w2, #0x55                  	// #85
   45a74:	91345c21 	add	x1, x1, #0xd17
   45a78:	9131cc00 	add	x0, x0, #0xc73
   45a7c:	9400099e 	bl	480f4 <__assert>
   45a80:	2a0203f3 	mov	w19, w2
   45a84:	aa0103f4 	mov	x20, x1
   45a88:	94000bbe 	bl	48980 <_cpu_data_by_mpidr>
   45a8c:	f8335814 	str	x20, [x0, w19, uxtw #3]
   45a90:	a94153f3 	ldp	x19, x20, [sp, #16]
   45a94:	a8c27bfd 	ldp	x29, x30, [sp], #32
   45a98:	d65f03c0 	ret

0000000000045a9c <cm_init_context>:
   45a9c:	a9bd7bfd 	stp	x29, x30, [sp, #-48]!
   45aa0:	910003fd 	mov	x29, sp
   45aa4:	a9025bf5 	stp	x21, x22, [sp, #32]
   45aa8:	b9400436 	ldr	w22, [x1, #4]
   45aac:	a90153f3 	stp	x19, x20, [sp, #16]
   45ab0:	aa0103f4 	mov	x20, x1
   45ab4:	120002d6 	and	w22, w22, #0x1
   45ab8:	2a1603e1 	mov	w1, w22
   45abc:	97ffffd1 	bl	45a00 <cm_get_context_by_mpidr>
   45ac0:	b5000120 	cbnz	x0, 45ae4 <cm_init_context+0x48>
   45ac4:	90000023 	adrp	x3, 49000 <asm_print_str+0x14>
   45ac8:	90000021 	adrp	x1, 49000 <asm_print_str+0x14>
   45acc:	90000020 	adrp	x0, 49000 <asm_print_str+0x14>
   45ad0:	9133f063 	add	x3, x3, #0xcfc
   45ad4:	528011e2 	mov	w2, #0x8f                  	// #143
   45ad8:	91345c21 	add	x1, x1, #0xd17
   45adc:	91327c00 	add	x0, x0, #0xc9f
   45ae0:	94000985 	bl	480f4 <__assert>
   45ae4:	aa0003f5 	mov	x21, x0
   45ae8:	d2804202 	mov	x2, #0x210                 	// #528
   45aec:	52800001 	mov	w1, #0x0                   	// #0
   45af0:	94000988 	bl	48110 <memset>
   45af4:	d53e1100 	mrs	x0, scr_el3
   45af8:	1281a0f3 	mov	w19, #0xfffff2f8            	// #-3336
   45afc:	0a000273 	and	w19, w19, w0
   45b00:	34000056 	cbz	w22, 45b08 <cm_init_context+0x6c>
   45b04:	32000273 	orr	w19, w19, #0x1
   45b08:	b9401280 	ldr	w0, [x20, #16]
   45b0c:	37200040 	tbnz	w0, #4, 45b14 <cm_init_context+0x78>
   45b10:	32160273 	orr	w19, w19, #0x400
   45b14:	b9400680 	ldr	w0, [x20, #4]
   45b18:	36100040 	tbz	w0, #2, 45b20 <cm_init_context+0x84>
   45b1c:	32150273 	orr	w19, w19, #0x800
   45b20:	2a1603e0 	mov	w0, w22
   45b24:	940000a3 	bl	45db0 <get_scr_el3_from_routing_model>
   45b28:	b9400681 	ldr	w1, [x20, #4]
   45b2c:	52810003 	mov	w3, #0x800                 	// #2048
   45b30:	b9401282 	ldr	w2, [x20, #16]
   45b34:	52810405 	mov	w5, #0x820                 	// #2080
   45b38:	72a61803 	movk	w3, #0x30c0, lsl #16
   45b3c:	72a61805 	movk	w5, #0x30c0, lsl #16
   45b40:	53081c21 	lsl	w1, w1, #24
   45b44:	12000c44 	and	w4, w2, #0xf
   45b48:	12070021 	and	w1, w1, #0x2000000
   45b4c:	71000c9f 	cmp	w4, #0x3
   45b50:	2a030023 	orr	w3, w1, w3
   45b54:	2a050021 	orr	w1, w1, w5
   45b58:	9a830021 	csel	x1, x1, x3, eq  // eq = none
   45b5c:	f900aaa1 	str	x1, [x21, #336]
   45b60:	2a000260 	orr	w0, w19, w0
   45b64:	37200202 	tbnz	w2, #4, 45ba4 <cm_init_context+0x108>
   45b68:	d3420c41 	ubfx	x1, x2, #2, #2
   45b6c:	7100083f 	cmp	w1, #0x2
   45b70:	54000041 	b.ne	45b78 <cm_init_context+0xdc>  // b.any
   45b74:	32180000 	orr	w0, w0, #0x100
   45b78:	f90082a0 	str	x0, [x21, #256]
   45b7c:	2a0203e2 	mov	w2, w2
   45b80:	f9400680 	ldr	x0, [x20, #8]
   45b84:	91006281 	add	x1, x20, #0x18
   45b88:	a94153f3 	ldp	x19, x20, [sp, #16]
   45b8c:	a91102a2 	stp	x2, x0, [x21, #272]
   45b90:	aa1503e0 	mov	x0, x21
   45b94:	d2800802 	mov	x2, #0x40                  	// #64
   45b98:	a9425bf5 	ldp	x21, x22, [sp, #32]
   45b9c:	a8c37bfd 	ldp	x29, x30, [sp], #48
   45ba0:	14000963 	b	4812c <memcpy>
   45ba4:	7100289f 	cmp	w4, #0xa
   45ba8:	17fffff2 	b	45b70 <cm_init_context+0xd4>

0000000000045bac <cm_prepare_el3_exit>:
   45bac:	a9be7bfd 	stp	x29, x30, [sp, #-32]!
   45bb0:	910003fd 	mov	x29, sp
   45bb4:	a90153f3 	stp	x19, x20, [sp, #16]
   45bb8:	2a0003f4 	mov	w20, w0
   45bbc:	97ffff71 	bl	45980 <cm_get_context>
   45bc0:	b5000120 	cbnz	x0, 45be4 <cm_prepare_el3_exit+0x38>
   45bc4:	90000023 	adrp	x3, 49000 <asm_print_str+0x14>
   45bc8:	90000021 	adrp	x1, 49000 <asm_print_str+0x14>
   45bcc:	90000020 	adrp	x0, 49000 <asm_print_str+0x14>
   45bd0:	9133f063 	add	x3, x3, #0xcfc
   45bd4:	52801ca2 	mov	w2, #0xe5                  	// #229
   45bd8:	91345c21 	add	x1, x1, #0xd17
   45bdc:	9132bc00 	add	x0, x0, #0xcaf
   45be0:	94000945 	bl	480f4 <__assert>
   45be4:	aa0003f3 	mov	x19, x0
   45be8:	7100069f 	cmp	w20, #0x1
   45bec:	54000121 	b.ne	45c10 <cm_prepare_el3_exit+0x64>  // b.any
   45bf0:	f9408000 	ldr	x0, [x0, #256]
   45bf4:	364001a0 	tbz	w0, #8, 45c28 <cm_prepare_el3_exit+0x7c>
   45bf8:	f940aa60 	ldr	x0, [x19, #336]
   45bfc:	52810601 	mov	w1, #0x830                 	// #2096
   45c00:	72a618a1 	movk	w1, #0x30c5, lsl #16
   45c04:	12067800 	and	w0, w0, #0xfdffffff
   45c08:	2a010000 	orr	w0, w0, w1
   45c0c:	d51c1000 	msr	sctlr_el2, x0
   45c10:	91048260 	add	x0, x19, #0x120
   45c14:	94000b29 	bl	488b8 <el1_sysregs_context_restore>
   45c18:	aa1303e0 	mov	x0, x19
   45c1c:	a94153f3 	ldp	x19, x20, [sp, #16]
   45c20:	a8c27bfd 	ldp	x29, x30, [sp], #32
   45c24:	17ffff66 	b	459bc <cm_set_next_context>
   45c28:	d5380401 	mrs	x1, id_aa64pfr0_el1
   45c2c:	f2780c3f 	tst	x1, #0xf00
   45c30:	54ffff00 	b.eq	45c10 <cm_prepare_el3_exit+0x64>  // b.none
   45c34:	d36ba800 	lsl	x0, x0, #21
   45c38:	92610000 	and	x0, x0, #0x80000000
   45c3c:	d51c1100 	msr	hcr_el2, x0
   45c40:	d53c1141 	mrs	x1, cptr_el2
   45c44:	529f7fe0 	mov	w0, #0xfbff                	// #64511
   45c48:	72affde0 	movk	w0, #0x7fef, lsl #16
   45c4c:	0a010000 	and	w0, w0, w1
   45c50:	d51c1140 	msr	cptr_el2, x0
   45c54:	d2800060 	mov	x0, #0x3                   	// #3
   45c58:	d51ce100 	msr	cnthctl_el2, x0
   45c5c:	d5380000 	mrs	x0, midr_el1
   45c60:	d51c0000 	msr	vpidr_el2, x0
   45c64:	d53800a0 	mrs	x0, mpidr_el1
   45c68:	d51c00a0 	msr	vmpidr_el2, x0
   45c6c:	17ffffe9 	b	45c10 <cm_prepare_el3_exit+0x64>

0000000000045c70 <runtime_svc_init>:
   45c70:	a9bc7bfd 	stp	x29, x30, [sp, #-64]!
   45c74:	910003fd 	mov	x29, sp
   45c78:	a90153f3 	stp	x19, x20, [sp, #16]
   45c7c:	b0000033 	adrp	x19, 4a000 <__func__.2258+0x12>
   45c80:	b0000034 	adrp	x20, 4a000 <__func__.2258+0x12>
   45c84:	912ce273 	add	x19, x19, #0xb38
   45c88:	912de294 	add	x20, x20, #0xb78
   45c8c:	a9025bf5 	stp	x21, x22, [sp, #32]
   45c90:	cb130294 	sub	x20, x20, x19
   45c94:	a90363f7 	stp	x23, x24, [sp, #48]
   45c98:	d345fe94 	lsr	x20, x20, #5
   45c9c:	b40001f4 	cbz	x20, 45cd8 <runtime_svc_init+0x68>
   45ca0:	90000057 	adrp	x23, 4d000 <__STACKS_START__+0xfc0>
   45ca4:	90000055 	adrp	x21, 4d000 <__STACKS_START__+0xfc0>
   45ca8:	90000036 	adrp	x22, 49000 <asm_print_str+0x14>
   45cac:	913802b5 	add	x21, x21, #0xe00
   45cb0:	91358ad6 	add	x22, x22, #0xd62
   45cb4:	d2801002 	mov	x2, #0x80                  	// #128
   45cb8:	12800001 	mov	w1, #0xffffffff            	// #-1
   45cbc:	aa1503e0 	mov	x0, x21
   45cc0:	52800018 	mov	w24, #0x0                   	// #0
   45cc4:	94000913 	bl	48110 <memset>
   45cc8:	f90062f3 	str	x19, [x23, #192]
   45ccc:	2a1803f3 	mov	w19, w24
   45cd0:	eb14027f 	cmp	x19, x20
   45cd4:	540000c3 	b.cc	45cec <runtime_svc_init+0x7c>  // b.lo, b.ul, b.last
   45cd8:	a94153f3 	ldp	x19, x20, [sp, #16]
   45cdc:	a9425bf5 	ldp	x21, x22, [sp, #32]
   45ce0:	a94363f7 	ldp	x23, x24, [sp, #48]
   45ce4:	a8c47bfd 	ldp	x29, x30, [sp], #64
   45ce8:	d65f03c0 	ret
   45cec:	f94062e0 	ldr	x0, [x23, #192]
   45cf0:	d37bea73 	lsl	x19, x19, #5
   45cf4:	ab130001 	adds	x1, x0, x19
   45cf8:	54000580 	b.eq	45da8 <runtime_svc_init+0x138>  // b.none
   45cfc:	39400422 	ldrb	w2, [x1, #1]
   45d00:	38736800 	ldrb	w0, [x0, x19]
   45d04:	6b02001f 	cmp	w0, w2
   45d08:	54000148 	b.hi	45d30 <runtime_svc_init+0xc0>  // b.pmore
   45d0c:	7100fc5f 	cmp	w2, #0x3f
   45d10:	54000108 	b.hi	45d30 <runtime_svc_init+0xc0>  // b.pmore
   45d14:	39400820 	ldrb	w0, [x1, #2]
   45d18:	7100041f 	cmp	w0, #0x1
   45d1c:	540000a8 	b.hi	45d30 <runtime_svc_init+0xc0>  // b.pmore
   45d20:	f9400820 	ldr	x0, [x1, #16]
   45d24:	b5000100 	cbnz	x0, 45d44 <runtime_svc_init+0xd4>
   45d28:	f9400c20 	ldr	x0, [x1, #24]
   45d2c:	b50001e0 	cbnz	x0, 45d68 <runtime_svc_init+0xf8>
   45d30:	f9400422 	ldr	x2, [x1, #8]
   45d34:	90000020 	adrp	x0, 49000 <asm_print_str+0x14>
   45d38:	9134ac00 	add	x0, x0, #0xd2b
   45d3c:	9400083a 	bl	47e24 <tf_printf>
   45d40:	94000cbd 	bl	49034 <do_panic>
   45d44:	d63f0000 	blr	x0
   45d48:	34000100 	cbz	w0, 45d68 <runtime_svc_init+0xf8>
   45d4c:	f94062e0 	ldr	x0, [x23, #192]
   45d50:	8b130013 	add	x19, x0, x19
   45d54:	aa1603e0 	mov	x0, x22
   45d58:	f9400661 	ldr	x1, [x19, #8]
   45d5c:	94000832 	bl	47e24 <tf_printf>
   45d60:	11000718 	add	w24, w24, #0x1
   45d64:	17ffffda 	b	45ccc <runtime_svc_init+0x5c>
   45d68:	f94062e3 	ldr	x3, [x23, #192]
   45d6c:	8b130060 	add	x0, x3, x19
   45d70:	39400801 	ldrb	w1, [x0, #2]
   45d74:	39400400 	ldrb	w0, [x0, #1]
   45d78:	531a0022 	ubfiz	w2, w1, #6, #1
   45d7c:	38736861 	ldrb	w1, [x3, x19]
   45d80:	12001400 	and	w0, w0, #0x3f
   45d84:	12001421 	and	w1, w1, #0x3f
   45d88:	2a020000 	orr	w0, w0, w2
   45d8c:	2a020021 	orr	w1, w1, w2
   45d90:	93407c21 	sxtw	x1, w1
   45d94:	6b01001f 	cmp	w0, w1
   45d98:	54fffe43 	b.cc	45d60 <runtime_svc_init+0xf0>  // b.lo, b.ul, b.last
   45d9c:	38356838 	strb	w24, [x1, x21]
   45da0:	91000421 	add	x1, x1, #0x1
   45da4:	17fffffc 	b	45d94 <runtime_svc_init+0x124>
   45da8:	f9400420 	ldr	x0, [x1, #8]
   45dac:	d4207d00 	brk	#0x3e8

0000000000045db0 <get_scr_el3_from_routing_model>:
   45db0:	7100041f 	cmp	w0, #0x1
   45db4:	54000169 	b.ls	45de0 <get_scr_el3_from_routing_model+0x30>  // b.plast
   45db8:	a9bf7bfd 	stp	x29, x30, [sp, #-16]!
   45dbc:	90000023 	adrp	x3, 49000 <asm_print_str+0x14>
   45dc0:	90000021 	adrp	x1, 49000 <asm_print_str+0x14>
   45dc4:	90000020 	adrp	x0, 49000 <asm_print_str+0x14>
   45dc8:	910003fd 	mov	x29, sp
   45dcc:	91306063 	add	x3, x3, #0xc18
   45dd0:	52800dc2 	mov	w2, #0x6e                  	// #110
   45dd4:	9136c421 	add	x1, x1, #0xdb1
   45dd8:	91364800 	add	x0, x0, #0xd92
   45ddc:	940008c6 	bl	480f4 <__assert>
   45de0:	90000041 	adrp	x1, 4d000 <__STACKS_START__+0xfc0>
   45de4:	91032022 	add	x2, x1, #0xc8
   45de8:	2a0003e1 	mov	w1, w0
   45dec:	8b010840 	add	x0, x2, x1, lsl #2
   45df0:	8b010843 	add	x3, x2, x1, lsl #2
   45df4:	8b010841 	add	x1, x2, x1, lsl #2
   45df8:	b9403c00 	ldr	w0, [x0, #60]
   45dfc:	b9400c63 	ldr	w3, [x3, #12]
   45e00:	b9402421 	ldr	w1, [x1, #36]
   45e04:	2a030000 	orr	w0, w0, w3
   45e08:	2a010000 	orr	w0, w0, w1
   45e0c:	d65f03c0 	ret

0000000000045e10 <get_interrupt_type_handler>:
   45e10:	7100041f 	cmp	w0, #0x1
   45e14:	54000140 	b.eq	45e3c <get_interrupt_type_handler+0x2c>  // b.none
   45e18:	721e781f 	tst	w0, #0xfffffffd
   45e1c:	54000101 	b.ne	45e3c <get_interrupt_type_handler+0x2c>  // b.any
   45e20:	2a0003e0 	mov	w0, w0
   45e24:	d2800301 	mov	x1, #0x18                  	// #24
   45e28:	9b017c00 	mul	x0, x0, x1
   45e2c:	90000041 	adrp	x1, 4d000 <__STACKS_START__+0xfc0>
   45e30:	91032021 	add	x1, x1, #0xc8
   45e34:	f8606820 	ldr	x0, [x1, x0]
   45e38:	d65f03c0 	ret
   45e3c:	d2800000 	mov	x0, #0x0                   	// #0
   45e40:	17fffffe 	b	45e38 <get_interrupt_type_handler+0x28>

0000000000045e44 <bl31_arch_setup>:
   45e44:	a9bf7bfd 	stp	x29, x30, [sp, #-16]!
   45e48:	d2800600 	mov	x0, #0x30                  	// #48
   45e4c:	910003fd 	mov	x29, sp
   45e50:	d51e1100 	msr	scr_el3, x0
   45e54:	97fffe42 	bl	4575c <plat_get_syscnt_freq>
   45e58:	d51be000 	msr	cntfrq_el0, x0
   45e5c:	a8c17bfd 	ldp	x29, x30, [sp], #16
   45e60:	d65f03c0 	ret

0000000000045e64 <bakery_lock_init>:
   45e64:	a9be7bfd 	stp	x29, x30, [sp, #-32]!
   45e68:	910003fd 	mov	x29, sp
   45e6c:	f9000bf3 	str	x19, [sp, #16]
   45e70:	b5000120 	cbnz	x0, 45e94 <bakery_lock_init+0x30>
   45e74:	90000023 	adrp	x3, 49000 <asm_print_str+0x14>
   45e78:	90000021 	adrp	x1, 49000 <asm_print_str+0x14>
   45e7c:	90000020 	adrp	x0, 49000 <asm_print_str+0x14>
   45e80:	9138a863 	add	x3, x3, #0xe2a
   45e84:	528008e2 	mov	w2, #0x47                  	// #71
   45e88:	9138c421 	add	x1, x1, #0xe31
   45e8c:	91371c00 	add	x0, x0, #0xdc7
   45e90:	94000899 	bl	480f4 <__assert>
   45e94:	aa0003f3 	mov	x19, x0
   45e98:	d2800302 	mov	x2, #0x18                  	// #24
   45e9c:	52800001 	mov	w1, #0x0                   	// #0
   45ea0:	9400089c 	bl	48110 <memset>
   45ea4:	12800000 	mov	w0, #0xffffffff            	// #-1
   45ea8:	b9000260 	str	w0, [x19]
   45eac:	f9400bf3 	ldr	x19, [sp, #16]
   45eb0:	a8c27bfd 	ldp	x29, x30, [sp], #32
   45eb4:	d65f03c0 	ret

0000000000045eb8 <bakery_lock_get>:
   45eb8:	a9be7bfd 	stp	x29, x30, [sp, #-32]!
   45ebc:	910003fd 	mov	x29, sp
   45ec0:	f9000bf3 	str	x19, [sp, #16]
   45ec4:	aa0003f3 	mov	x19, x0
   45ec8:	d53800a0 	mrs	x0, mpidr_el1
   45ecc:	94000cdf 	bl	49248 <platform_get_core_pos>
   45ed0:	b5000133 	cbnz	x19, 45ef4 <bakery_lock_get+0x3c>
   45ed4:	90000023 	adrp	x3, 49000 <asm_print_str+0x14>
   45ed8:	9138a863 	add	x3, x3, #0xe2a
   45edc:	528010e2 	mov	w2, #0x87                  	// #135
   45ee0:	90000021 	adrp	x1, 49000 <asm_print_str+0x14>
   45ee4:	90000020 	adrp	x0, 49000 <asm_print_str+0x14>
   45ee8:	9138c421 	add	x1, x1, #0xe31
   45eec:	91376000 	add	x0, x0, #0xdd8
   45ef0:	94000881 	bl	480f4 <__assert>
   45ef4:	71000c1f 	cmp	w0, #0x3
   45ef8:	54000089 	b.ls	45f08 <bakery_lock_get+0x50>  // b.plast
   45efc:	90000023 	adrp	x3, 49000 <asm_print_str+0x14>
   45f00:	9137f063 	add	x3, x3, #0xdfc
   45f04:	17fffff6 	b	45edc <bakery_lock_get+0x24>
   45f08:	b9400261 	ldr	w1, [x19]
   45f0c:	6b00003f 	cmp	w1, w0
   45f10:	540000a1 	b.ne	45f24 <bakery_lock_get+0x6c>  // b.any
   45f14:	90000023 	adrp	x3, 49000 <asm_print_str+0x14>
   45f18:	52801142 	mov	w2, #0x8a                  	// #138
   45f1c:	91385863 	add	x3, x3, #0xe16
   45f20:	17fffff0 	b	45ee0 <bakery_lock_get+0x28>
   45f24:	2a0003e3 	mov	w3, w0
   45f28:	52800021 	mov	w1, #0x1                   	// #1
   45f2c:	8b030264 	add	x4, x19, x3
   45f30:	8b030a63 	add	x3, x19, x3, lsl #2
   45f34:	39001081 	strb	w1, [x4, #4]
   45f38:	b9400a62 	ldr	w2, [x19, #8]
   45f3c:	b9400e61 	ldr	w1, [x19, #12]
   45f40:	b9401266 	ldr	w6, [x19, #16]
   45f44:	b9401665 	ldr	w5, [x19, #20]
   45f48:	6b06003f 	cmp	w1, w6
   45f4c:	1a862021 	csel	w1, w1, w6, cs  // cs = hs, nlast
   45f50:	6b05005f 	cmp	w2, w5
   45f54:	1a852042 	csel	w2, w2, w5, cs  // cs = hs, nlast
   45f58:	6b02003f 	cmp	w1, w2
   45f5c:	1a822021 	csel	w1, w1, w2, cs  // cs = hs, nlast
   45f60:	11000421 	add	w1, w1, #0x1
   45f64:	b9000861 	str	w1, [x3, #8]
   45f68:	3900109f 	strb	wzr, [x4, #4]
   45f6c:	d5033f9f 	dsb	sy
   45f70:	d503209f 	sev
   45f74:	2a012001 	orr	w1, w0, w1, lsl #8
   45f78:	52800002 	mov	w2, #0x0                   	// #0
   45f7c:	6b02001f 	cmp	w0, w2
   45f80:	54000200 	b.eq	45fc0 <bakery_lock_get+0x108>  // b.none
   45f84:	2a0203e3 	mov	w3, w2
   45f88:	8b030265 	add	x5, x19, x3
   45f8c:	394010a4 	ldrb	w4, [x5, #4]
   45f90:	72001c9f 	tst	w4, #0xff
   45f94:	54000241 	b.ne	45fdc <bakery_lock_get+0x124>  // b.any
   45f98:	8b030a63 	add	x3, x19, x3, lsl #2
   45f9c:	b9400864 	ldr	w4, [x3, #8]
   45fa0:	34000104 	cbz	w4, 45fc0 <bakery_lock_get+0x108>
   45fa4:	2a042045 	orr	w5, w2, w4, lsl #8
   45fa8:	6b0100bf 	cmp	w5, w1
   45fac:	540000a2 	b.cs	45fc0 <bakery_lock_get+0x108>  // b.hs, b.nlast
   45fb0:	d503205f 	wfe
   45fb4:	b9400865 	ldr	w5, [x3, #8]
   45fb8:	6b0400bf 	cmp	w5, w4
   45fbc:	54ffffa0 	b.eq	45fb0 <bakery_lock_get+0xf8>  // b.none
   45fc0:	11000442 	add	w2, w2, #0x1
   45fc4:	7100105f 	cmp	w2, #0x4
   45fc8:	54fffda1 	b.ne	45f7c <bakery_lock_get+0xc4>  // b.any
   45fcc:	b9000260 	str	w0, [x19]
   45fd0:	f9400bf3 	ldr	x19, [sp, #16]
   45fd4:	a8c27bfd 	ldp	x29, x30, [sp], #32
   45fd8:	d65f03c0 	ret
   45fdc:	d503205f 	wfe
   45fe0:	17ffffeb 	b	45f8c <bakery_lock_get+0xd4>

0000000000045fe4 <bakery_lock_release>:
   45fe4:	a9be7bfd 	stp	x29, x30, [sp, #-32]!
   45fe8:	910003fd 	mov	x29, sp
   45fec:	f9000bf3 	str	x19, [sp, #16]
   45ff0:	aa0003f3 	mov	x19, x0
   45ff4:	d53800a0 	mrs	x0, mpidr_el1
   45ff8:	94000c94 	bl	49248 <platform_get_core_pos>
   45ffc:	b5000133 	cbnz	x19, 46020 <bakery_lock_release+0x3c>
   46000:	f0000003 	adrp	x3, 49000 <asm_print_str+0x14>
   46004:	9138a863 	add	x3, x3, #0xe2a
   46008:	52801702 	mov	w2, #0xb8                  	// #184
   4600c:	f0000001 	adrp	x1, 49000 <asm_print_str+0x14>
   46010:	f0000000 	adrp	x0, 49000 <asm_print_str+0x14>
   46014:	9138c421 	add	x1, x1, #0xe31
   46018:	9137a000 	add	x0, x0, #0xde8
   4601c:	94000836 	bl	480f4 <__assert>
   46020:	71000c1f 	cmp	w0, #0x3
   46024:	54000089 	b.ls	46034 <bakery_lock_release+0x50>  // b.plast
   46028:	f0000003 	adrp	x3, 49000 <asm_print_str+0x14>
   4602c:	9137f063 	add	x3, x3, #0xdfc
   46030:	17fffff6 	b	46008 <bakery_lock_release+0x24>
   46034:	b9400261 	ldr	w1, [x19]
   46038:	6b00003f 	cmp	w1, w0
   4603c:	540000a0 	b.eq	46050 <bakery_lock_release+0x6c>  // b.none
   46040:	f0000003 	adrp	x3, 49000 <asm_print_str+0x14>
   46044:	52801722 	mov	w2, #0xb9                  	// #185
   46048:	91394063 	add	x3, x3, #0xe50
   4604c:	17fffff0 	b	4600c <bakery_lock_release+0x28>
   46050:	8b214a61 	add	x1, x19, w1, uxtw #2
   46054:	12800000 	mov	w0, #0xffffffff            	// #-1
   46058:	b9000260 	str	w0, [x19]
   4605c:	b900083f 	str	wzr, [x1, #8]
   46060:	d5033f9f 	dsb	sy
   46064:	d503209f 	sev
   46068:	f9400bf3 	ldr	x19, [sp, #16]
   4606c:	a8c27bfd 	ldp	x29, x30, [sp], #32
   46070:	d65f03c0 	ret

0000000000046074 <std_svc_setup>:
   46074:	140006d7 	b	47bd0 <psci_setup>

0000000000046078 <std_svc_smc_handler>:
   46078:	721b281f 	tst	w0, #0xffe0
   4607c:	54000041 	b.ne	46084 <std_svc_smc_handler+0xc>  // b.any
   46080:	140005d0 	b	477c0 <psci_smc_handler>
   46084:	a9be7bfd 	stp	x29, x30, [sp, #-32]!
   46088:	2a0003e8 	mov	w8, w0
   4608c:	2a0003e1 	mov	w1, w0
   46090:	529fe020 	mov	w0, #0xff01                	// #65281
   46094:	910003fd 	mov	x29, sp
   46098:	f9000bf3 	str	x19, [sp, #16]
   4609c:	72b08000 	movk	w0, #0x8400, lsl #16
   460a0:	aa0603f3 	mov	x19, x6
   460a4:	6b00011f 	cmp	w8, w0
   460a8:	54000160 	b.eq	460d4 <std_svc_smc_handler+0x5c>  // b.none
   460ac:	11000800 	add	w0, w0, #0x2
   460b0:	6b00011f 	cmp	w8, w0
   460b4:	54000240 	b.eq	460fc <std_svc_smc_handler+0x84>  // b.none
   460b8:	529fe000 	mov	w0, #0xff00                	// #65280
   460bc:	72b08000 	movk	w0, #0x8400, lsl #16
   460c0:	6b00011f 	cmp	w8, w0
   460c4:	54000281 	b.ne	46114 <std_svc_smc_handler+0x9c>  // b.any
   460c8:	d28001e0 	mov	x0, #0xf                   	// #15
   460cc:	f9000260 	str	x0, [x19]
   460d0:	1400000d 	b	46104 <std_svc_smc_handler+0x8c>
   460d4:	f0000000 	adrp	x0, 49000 <asm_print_str+0x14>
   460d8:	913a7000 	add	x0, x0, #0xe9c
   460dc:	b9400c01 	ldr	w1, [x0, #12]
   460e0:	f9000cc1 	str	x1, [x6, #24]
   460e4:	b9400801 	ldr	w1, [x0, #8]
   460e8:	b9400400 	ldr	w0, [x0, #4]
   460ec:	a90084c0 	stp	x0, x1, [x6, #8]
   460f0:	d2920b60 	mov	x0, #0x905b                	// #36955
   460f4:	f2a211a0 	movk	x0, #0x108d, lsl #16
   460f8:	17fffff5 	b	460cc <std_svc_smc_handler+0x54>
   460fc:	d2800020 	mov	x0, #0x1                   	// #1
   46100:	a90000df 	stp	xzr, x0, [x6]
   46104:	aa1303e0 	mov	x0, x19
   46108:	f9400bf3 	ldr	x19, [sp, #16]
   4610c:	a8c27bfd 	ldp	x29, x30, [sp], #32
   46110:	d65f03c0 	ret
   46114:	f0000000 	adrp	x0, 49000 <asm_print_str+0x14>
   46118:	91399000 	add	x0, x0, #0xe64
   4611c:	94000742 	bl	47e24 <tf_printf>
   46120:	b2407fe0 	mov	x0, #0xffffffff            	// #4294967295
   46124:	17ffffea 	b	460cc <std_svc_smc_handler+0x54>

0000000000046128 <psci_afflvl2_off>:
   46128:	a9bd7bfd 	stp	x29, x30, [sp, #-48]!
   4612c:	910003fd 	mov	x29, sp
   46130:	a90153f3 	stp	x19, x20, [sp, #16]
   46134:	aa0003f4 	mov	x20, x0
   46138:	a9025bf5 	stp	x21, x22, [sp, #32]
   4613c:	39402c00 	ldrb	w0, [x0, #11]
   46140:	7100081f 	cmp	w0, #0x2
   46144:	54000120 	b.eq	46168 <psci_afflvl2_off+0x40>  // b.none
   46148:	f0000003 	adrp	x3, 49000 <asm_print_str+0x14>
   4614c:	f0000001 	adrp	x1, 49000 <asm_print_str+0x14>
   46150:	f0000000 	adrp	x0, 49000 <asm_print_str+0x14>
   46154:	913cf463 	add	x3, x3, #0xf3d
   46158:	52800dc2 	mov	w2, #0x6e                  	// #110
   4615c:	913d8421 	add	x1, x1, #0xf61
   46160:	913b5800 	add	x0, x0, #0xed6
   46164:	940007e4 	bl	480f4 <__assert>
   46168:	94000b60 	bl	48ee8 <psci_do_pwrdown_cache_maintenance>
   4616c:	f0000020 	adrp	x0, 4d000 <__STACKS_START__+0xfc0>
   46170:	f9474000 	ldr	x0, [x0, #3712]
   46174:	f9400815 	ldr	x21, [x0, #16]
   46178:	b40001b5 	cbz	x21, 461ac <psci_afflvl2_off+0x84>
   4617c:	d53800b3 	mrs	x19, mpidr_el1
   46180:	39402e96 	ldrb	w22, [x20, #11]
   46184:	aa1403e0 	mov	x0, x20
   46188:	94000490 	bl	473c8 <psci_get_phys_state>
   4618c:	12003c02 	and	w2, w0, #0xffff
   46190:	2a1603e1 	mov	w1, w22
   46194:	aa1303e0 	mov	x0, x19
   46198:	aa1503e3 	mov	x3, x21
   4619c:	a94153f3 	ldp	x19, x20, [sp, #16]
   461a0:	a9425bf5 	ldp	x21, x22, [sp, #32]
   461a4:	a8c37bfd 	ldp	x29, x30, [sp], #48
   461a8:	d61f0060 	br	x3
   461ac:	52800000 	mov	w0, #0x0                   	// #0
   461b0:	a94153f3 	ldp	x19, x20, [sp, #16]
   461b4:	a9425bf5 	ldp	x21, x22, [sp, #32]
   461b8:	a8c37bfd 	ldp	x29, x30, [sp], #48
   461bc:	d65f03c0 	ret

00000000000461c0 <psci_afflvl1_off>:
   461c0:	a9bd7bfd 	stp	x29, x30, [sp, #-48]!
   461c4:	910003fd 	mov	x29, sp
   461c8:	a90153f3 	stp	x19, x20, [sp, #16]
   461cc:	aa0003f4 	mov	x20, x0
   461d0:	a9025bf5 	stp	x21, x22, [sp, #32]
   461d4:	39402c00 	ldrb	w0, [x0, #11]
   461d8:	7100041f 	cmp	w0, #0x1
   461dc:	54000120 	b.eq	46200 <psci_afflvl1_off+0x40>  // b.none
   461e0:	f0000003 	adrp	x3, 49000 <asm_print_str+0x14>
   461e4:	f0000001 	adrp	x1, 49000 <asm_print_str+0x14>
   461e8:	f0000000 	adrp	x0, 49000 <asm_print_str+0x14>
   461ec:	913c6063 	add	x3, x3, #0xf18
   461f0:	52800ac2 	mov	w2, #0x56                  	// #86
   461f4:	913d8421 	add	x1, x1, #0xf61
   461f8:	913b1400 	add	x0, x0, #0xec5
   461fc:	940007be 	bl	480f4 <__assert>
   46200:	94000b3a 	bl	48ee8 <psci_do_pwrdown_cache_maintenance>
   46204:	f0000020 	adrp	x0, 4d000 <__STACKS_START__+0xfc0>
   46208:	f9474000 	ldr	x0, [x0, #3712]
   4620c:	f9400815 	ldr	x21, [x0, #16]
   46210:	b40001b5 	cbz	x21, 46244 <psci_afflvl1_off+0x84>
   46214:	d53800b3 	mrs	x19, mpidr_el1
   46218:	39402e96 	ldrb	w22, [x20, #11]
   4621c:	aa1403e0 	mov	x0, x20
   46220:	9400046a 	bl	473c8 <psci_get_phys_state>
   46224:	12003c02 	and	w2, w0, #0xffff
   46228:	2a1603e1 	mov	w1, w22
   4622c:	aa1303e0 	mov	x0, x19
   46230:	aa1503e3 	mov	x3, x21
   46234:	a94153f3 	ldp	x19, x20, [sp, #16]
   46238:	a9425bf5 	ldp	x21, x22, [sp, #32]
   4623c:	a8c37bfd 	ldp	x29, x30, [sp], #48
   46240:	d61f0060 	br	x3
   46244:	52800000 	mov	w0, #0x0                   	// #0
   46248:	a94153f3 	ldp	x19, x20, [sp, #16]
   4624c:	a9425bf5 	ldp	x21, x22, [sp, #32]
   46250:	a8c37bfd 	ldp	x29, x30, [sp], #48
   46254:	d65f03c0 	ret

0000000000046258 <psci_afflvl0_off>:
   46258:	a9bd7bfd 	stp	x29, x30, [sp, #-48]!
   4625c:	910003fd 	mov	x29, sp
   46260:	a90153f3 	stp	x19, x20, [sp, #16]
   46264:	aa0003f4 	mov	x20, x0
   46268:	a9025bf5 	stp	x21, x22, [sp, #32]
   4626c:	39402c00 	ldrb	w0, [x0, #11]
   46270:	34000120 	cbz	w0, 46294 <psci_afflvl0_off+0x3c>
   46274:	f0000003 	adrp	x3, 49000 <asm_print_str+0x14>
   46278:	f0000001 	adrp	x1, 49000 <asm_print_str+0x14>
   4627c:	f0000000 	adrp	x0, 49000 <asm_print_str+0x14>
   46280:	913bdc63 	add	x3, x3, #0xef7
   46284:	528005e2 	mov	w2, #0x2f                  	// #47
   46288:	913d8421 	add	x1, x1, #0xf61
   4628c:	913ad000 	add	x0, x0, #0xeb4
   46290:	94000799 	bl	480f4 <__assert>
   46294:	f0000020 	adrp	x0, 4d000 <__STACKS_START__+0xfc0>
   46298:	f9474400 	ldr	x0, [x0, #3720]
   4629c:	b5000120 	cbnz	x0, 462c0 <psci_afflvl0_off+0x68>
   462a0:	52800000 	mov	w0, #0x0                   	// #0
   462a4:	94000b11 	bl	48ee8 <psci_do_pwrdown_cache_maintenance>
   462a8:	f0000020 	adrp	x0, 4d000 <__STACKS_START__+0xfc0>
   462ac:	f9474000 	ldr	x0, [x0, #3712]
   462b0:	f9400815 	ldr	x21, [x0, #16]
   462b4:	b5000195 	cbnz	x21, 462e4 <psci_afflvl0_off+0x8c>
   462b8:	52800000 	mov	w0, #0x0                   	// #0
   462bc:	14000006 	b	462d4 <psci_afflvl0_off+0x7c>
   462c0:	f9400401 	ldr	x1, [x0, #8]
   462c4:	b4fffee1 	cbz	x1, 462a0 <psci_afflvl0_off+0x48>
   462c8:	d2800000 	mov	x0, #0x0                   	// #0
   462cc:	d63f0020 	blr	x1
   462d0:	34fffe80 	cbz	w0, 462a0 <psci_afflvl0_off+0x48>
   462d4:	a94153f3 	ldp	x19, x20, [sp, #16]
   462d8:	a9425bf5 	ldp	x21, x22, [sp, #32]
   462dc:	a8c37bfd 	ldp	x29, x30, [sp], #48
   462e0:	d65f03c0 	ret
   462e4:	d53800b3 	mrs	x19, mpidr_el1
   462e8:	39402e96 	ldrb	w22, [x20, #11]
   462ec:	aa1403e0 	mov	x0, x20
   462f0:	94000436 	bl	473c8 <psci_get_phys_state>
   462f4:	12003c02 	and	w2, w0, #0xffff
   462f8:	2a1603e1 	mov	w1, w22
   462fc:	aa1303e0 	mov	x0, x19
   46300:	aa1503e3 	mov	x3, x21
   46304:	a94153f3 	ldp	x19, x20, [sp, #16]
   46308:	a9425bf5 	ldp	x21, x22, [sp, #32]
   4630c:	a8c37bfd 	ldp	x29, x30, [sp], #48
   46310:	d61f0060 	br	x3

0000000000046314 <psci_afflvl_off>:
   46314:	a9ba7bfd 	stp	x29, x30, [sp, #-96]!
   46318:	910003fd 	mov	x29, sp
   4631c:	a90153f3 	stp	x19, x20, [sp, #16]
   46320:	2a0003f3 	mov	w19, w0
   46324:	a9025bf5 	stp	x21, x22, [sp, #32]
   46328:	2a0103f4 	mov	w20, w1
   4632c:	a90363f7 	stp	x23, x24, [sp, #48]
   46330:	d53800a0 	mrs	x0, mpidr_el1
   46334:	910123b5 	add	x21, x29, #0x48
   46338:	92409c00 	and	x0, x0, #0xffffffffff
   4633c:	2a0103e2 	mov	w2, w1
   46340:	aa1503e3 	mov	x3, x21
   46344:	2a1303e1 	mov	w1, w19
   46348:	9260dc00 	and	x0, x0, #0xffffffff00ffffff
   4634c:	940005fc 	bl	47b3c <psci_get_aff_map_nodes>
   46350:	34000120 	cbz	w0, 46374 <psci_afflvl_off+0x60>
   46354:	90000023 	adrp	x3, 4a000 <__func__.2258+0x12>
   46358:	91110063 	add	x3, x3, #0x440
   4635c:	52801a02 	mov	w2, #0xd0                  	// #208
   46360:	f0000001 	adrp	x1, 49000 <asm_print_str+0x14>
   46364:	f0000000 	adrp	x0, 49000 <asm_print_str+0x14>
   46368:	913d8421 	add	x1, x1, #0xf61
   4636c:	913b9c00 	add	x0, x0, #0xee7
   46370:	94000761 	bl	480f4 <__assert>
   46374:	aa1503e2 	mov	x2, x21
   46378:	2a1403e1 	mov	w1, w20
   4637c:	2a1303e0 	mov	w0, w19
   46380:	94000336 	bl	47058 <psci_acquire_afflvl_locks>
   46384:	52800023 	mov	w3, #0x1                   	// #1
   46388:	aa1503e2 	mov	x2, x21
   4638c:	2a1403e1 	mov	w1, w20
   46390:	2a1303e0 	mov	w0, w19
   46394:	940003f9 	bl	47378 <psci_do_afflvl_state_mgmt>
   46398:	aa1503e2 	mov	x2, x21
   4639c:	2a1403e1 	mov	w1, w20
   463a0:	2a1303e0 	mov	w0, w19
   463a4:	94000410 	bl	473e4 <psci_find_max_phys_off_afflvl>
   463a8:	3100041f 	cmn	w0, #0x1
   463ac:	540000a1 	b.ne	463c0 <psci_afflvl_off+0xac>  // b.any
   463b0:	f0000003 	adrp	x3, 49000 <asm_print_str+0x14>
   463b4:	52801d02 	mov	w2, #0xe8                  	// #232
   463b8:	9119d063 	add	x3, x3, #0x674
   463bc:	17ffffe9 	b	46360 <psci_afflvl_off+0x4c>
   463c0:	f0000018 	adrp	x24, 49000 <asm_print_str+0x14>
   463c4:	93407e76 	sxtw	x22, w19
   463c8:	913e4318 	add	x24, x24, #0xf90
   463cc:	12800037 	mov	w23, #0xfffffffe            	// #-2
   463d0:	940002de 	bl	46f48 <psci_set_max_phys_off_afflvl>
   463d4:	6b16029f 	cmp	w20, w22
   463d8:	540001aa 	b.ge	4640c <psci_afflvl_off+0xf8>  // b.tcont
   463dc:	12800000 	mov	w0, #0xffffffff            	// #-1
   463e0:	940002da 	bl	46f48 <psci_set_max_phys_off_afflvl>
   463e4:	aa1503e2 	mov	x2, x21
   463e8:	2a1403e1 	mov	w1, w20
   463ec:	2a1303e0 	mov	w0, w19
   463f0:	9400032d 	bl	470a4 <psci_release_afflvl_locks>
   463f4:	2a1703e0 	mov	w0, w23
   463f8:	a94153f3 	ldp	x19, x20, [sp, #16]
   463fc:	a9425bf5 	ldp	x21, x22, [sp, #32]
   46400:	a94363f7 	ldp	x23, x24, [sp, #48]
   46404:	a8c67bfd 	ldp	x29, x30, [sp], #96
   46408:	d65f03c0 	ret
   4640c:	f8767aa0 	ldr	x0, [x21, x22, lsl #3]
   46410:	b40000a0 	cbz	x0, 46424 <psci_afflvl_off+0x110>
   46414:	f8767b01 	ldr	x1, [x24, x22, lsl #3]
   46418:	d63f0020 	blr	x1
   4641c:	2a0003f7 	mov	w23, w0
   46420:	35fffde0 	cbnz	w0, 463dc <psci_afflvl_off+0xc8>
   46424:	910006d6 	add	x22, x22, #0x1
   46428:	17ffffeb 	b	463d4 <psci_afflvl_off+0xc0>

000000000004642c <psci_afflvl0_on>:
   4642c:	a9bc7bfd 	stp	x29, x30, [sp, #-64]!
   46430:	910003fd 	mov	x29, sp
   46434:	a90153f3 	stp	x19, x20, [sp, #16]
   46438:	aa0003f4 	mov	x20, x0
   4643c:	a9025bf5 	stp	x21, x22, [sp, #32]
   46440:	a90363f7 	stp	x23, x24, [sp, #48]
   46444:	d53e1117 	mrs	x23, scr_el3
   46448:	d5381018 	mrs	x24, sctlr_el1
   4644c:	39402c20 	ldrb	w0, [x1, #11]
   46450:	34000120 	cbz	w0, 46474 <psci_afflvl0_on+0x48>
   46454:	f0000003 	adrp	x3, 49000 <asm_print_str+0x14>
   46458:	90000021 	adrp	x1, 4a000 <__func__.2258+0x12>
   4645c:	f0000000 	adrp	x0, 49000 <asm_print_str+0x14>
   46460:	913bdc63 	add	x3, x3, #0xef7
   46464:	9100cc21 	add	x1, x1, #0x33
   46468:	913ef800 	add	x0, x0, #0xfbe
   4646c:	52800a82 	mov	w2, #0x54                  	// #84
   46470:	94000721 	bl	480f4 <__assert>
   46474:	aa0103f3 	mov	x19, x1
   46478:	aa0203f6 	mov	x22, x2
   4647c:	aa0303f5 	mov	x21, x3
   46480:	aa0103e0 	mov	x0, x1
   46484:	94000360 	bl	47204 <psci_get_state>
   46488:	72003c00 	ands	w0, w0, #0xffff
   4648c:	7a431804 	ccmp	w0, #0x3, #0x4, ne  // ne = any
   46490:	540005c0 	b.eq	46548 <psci_afflvl0_on+0x11c>  // b.none
   46494:	7100081f 	cmp	w0, #0x2
   46498:	54000640 	b.eq	46560 <psci_afflvl0_on+0x134>  // b.none
   4649c:	7100041f 	cmp	w0, #0x1
   464a0:	54000120 	b.eq	464c4 <psci_afflvl0_on+0x98>  // b.none
   464a4:	90000023 	adrp	x3, 4a000 <__func__.2258+0x12>
   464a8:	90000021 	adrp	x1, 4a000 <__func__.2258+0x12>
   464ac:	f0000000 	adrp	x0, 49000 <asm_print_str+0x14>
   464b0:	91016863 	add	x3, x3, #0x5a
   464b4:	52800802 	mov	w2, #0x40                  	// #64
   464b8:	9100cc21 	add	x1, x1, #0x33
   464bc:	913ea000 	add	x0, x0, #0xfa8
   464c0:	17ffffec 	b	46470 <psci_afflvl0_on+0x44>
   464c4:	f0000020 	adrp	x0, 4d000 <__STACKS_START__+0xfc0>
   464c8:	f9474400 	ldr	x0, [x0, #3720]
   464cc:	b40000a0 	cbz	x0, 464e0 <psci_afflvl0_on+0xb4>
   464d0:	f9400001 	ldr	x1, [x0]
   464d4:	b4000061 	cbz	x1, 464e0 <psci_afflvl0_on+0xb4>
   464d8:	aa1403e0 	mov	x0, x20
   464dc:	d63f0020 	blr	x1
   464e0:	2a1803e4 	mov	w4, w24
   464e4:	2a1703e3 	mov	w3, w23
   464e8:	aa1503e2 	mov	x2, x21
   464ec:	aa1603e1 	mov	x1, x22
   464f0:	aa1403e0 	mov	x0, x20
   464f4:	9400030b 	bl	47120 <psci_save_ns_entry>
   464f8:	350002a0 	cbnz	w0, 4654c <psci_afflvl0_on+0x120>
   464fc:	f0000021 	adrp	x1, 4d000 <__STACKS_START__+0xfc0>
   46500:	f9474021 	ldr	x1, [x1, #3712]
   46504:	f9400435 	ldr	x21, [x1, #8]
   46508:	b4000235 	cbz	x21, 4654c <psci_afflvl0_on+0x120>
   4650c:	39402e77 	ldrb	w23, [x19, #11]
   46510:	aa1303e0 	mov	x0, x19
   46514:	940003ad 	bl	473c8 <psci_get_phys_state>
   46518:	12003c04 	and	w4, w0, #0xffff
   4651c:	2a1703e3 	mov	w3, w23
   46520:	aa1603e2 	mov	x2, x22
   46524:	aa1403e0 	mov	x0, x20
   46528:	aa1503e5 	mov	x5, x21
   4652c:	a94153f3 	ldp	x19, x20, [sp, #16]
   46530:	d0000001 	adrp	x1, 48000 <tf_printf+0x1dc>
   46534:	a9425bf5 	ldp	x21, x22, [sp, #32]
   46538:	9139e021 	add	x1, x1, #0xe78
   4653c:	a94363f7 	ldp	x23, x24, [sp, #48]
   46540:	a8c47bfd 	ldp	x29, x30, [sp], #64
   46544:	d61f00a0 	br	x5
   46548:	12800060 	mov	w0, #0xfffffffc            	// #-4
   4654c:	a94153f3 	ldp	x19, x20, [sp, #16]
   46550:	a9425bf5 	ldp	x21, x22, [sp, #32]
   46554:	a94363f7 	ldp	x23, x24, [sp, #48]
   46558:	a8c47bfd 	ldp	x29, x30, [sp], #64
   4655c:	d65f03c0 	ret
   46560:	12800080 	mov	w0, #0xfffffffb            	// #-5
   46564:	17fffffa 	b	4654c <psci_afflvl0_on+0x120>

0000000000046568 <psci_afflvl0_on_finish>:
   46568:	a9be7bfd 	stp	x29, x30, [sp, #-32]!
   4656c:	910003fd 	mov	x29, sp
   46570:	f9000bf3 	str	x19, [sp, #16]
   46574:	39402c01 	ldrb	w1, [x0, #11]
   46578:	34000121 	cbz	w1, 4659c <psci_afflvl0_on_finish+0x34>
   4657c:	f0000003 	adrp	x3, 49000 <asm_print_str+0x14>
   46580:	913bdc63 	add	x3, x3, #0xef7
   46584:	528029c2 	mov	w2, #0x14e                 	// #334
   46588:	90000021 	adrp	x1, 4a000 <__func__.2258+0x12>
   4658c:	f0000000 	adrp	x0, 49000 <asm_print_str+0x14>
   46590:	9100cc21 	add	x1, x1, #0x33
   46594:	913fb800 	add	x0, x0, #0xfee
   46598:	940006d7 	bl	480f4 <__assert>
   4659c:	aa0003f3 	mov	x19, x0
   465a0:	94000319 	bl	47204 <psci_get_state>
   465a4:	12003c00 	and	w0, w0, #0xffff
   465a8:	7100081f 	cmp	w0, #0x2
   465ac:	540000a0 	b.eq	465c0 <psci_afflvl0_on_finish+0x58>  // b.none
   465b0:	90000023 	adrp	x3, 4a000 <__func__.2258+0x12>
   465b4:	52802a42 	mov	w2, #0x152                 	// #338
   465b8:	910bac63 	add	x3, x3, #0x2eb
   465bc:	17fffff3 	b	46588 <psci_afflvl0_on_finish+0x20>
   465c0:	f0000020 	adrp	x0, 4d000 <__STACKS_START__+0xfc0>
   465c4:	f9474000 	ldr	x0, [x0, #3712]
   465c8:	f9401003 	ldr	x3, [x0, #32]
   465cc:	b4000143 	cbz	x3, 465f4 <psci_afflvl0_on_finish+0x8c>
   465d0:	d53800a0 	mrs	x0, mpidr_el1
   465d4:	39402e61 	ldrb	w1, [x19, #11]
   465d8:	52800022 	mov	w2, #0x1                   	// #1
   465dc:	d63f0060 	blr	x3
   465e0:	340000a0 	cbz	w0, 465f4 <psci_afflvl0_on_finish+0x8c>
   465e4:	90000023 	adrp	x3, 4a000 <__func__.2258+0x12>
   465e8:	52802c22 	mov	w2, #0x161                 	// #353
   465ec:	91110063 	add	x3, x3, #0x440
   465f0:	17ffffe6 	b	46588 <psci_afflvl0_on_finish+0x20>
   465f4:	94000a5a 	bl	48f5c <psci_do_pwrup_cache_maintenance>
   465f8:	97fffe13 	bl	45e44 <bl31_arch_setup>
   465fc:	f0000020 	adrp	x0, 4d000 <__STACKS_START__+0xfc0>
   46600:	f9474400 	ldr	x0, [x0, #3720]
   46604:	b40000a0 	cbz	x0, 46618 <psci_afflvl0_on_finish+0xb0>
   46608:	f9400c01 	ldr	x1, [x0, #24]
   4660c:	b4000061 	cbz	x1, 46618 <psci_afflvl0_on_finish+0xb0>
   46610:	d2800000 	mov	x0, #0x0                   	// #0
   46614:	d63f0020 	blr	x1
   46618:	52800020 	mov	w0, #0x1                   	// #1
   4661c:	97fffd64 	bl	45bac <cm_prepare_el3_exit>
   46620:	52800040 	mov	w0, #0x2                   	// #2
   46624:	94000ae5 	bl	491b8 <dcsw_op_louis>
   46628:	52800000 	mov	w0, #0x0                   	// #0
   4662c:	f9400bf3 	ldr	x19, [sp, #16]
   46630:	a8c27bfd 	ldp	x29, x30, [sp], #32
   46634:	d65f03c0 	ret

0000000000046638 <psci_afflvl2_on>:
   46638:	a9bc7bfd 	stp	x29, x30, [sp, #-64]!
   4663c:	910003fd 	mov	x29, sp
   46640:	a90153f3 	stp	x19, x20, [sp, #16]
   46644:	a9025bf5 	stp	x21, x22, [sp, #32]
   46648:	f9001bf7 	str	x23, [sp, #48]
   4664c:	39402c34 	ldrb	w20, [x1, #11]
   46650:	71000a9f 	cmp	w20, #0x2
   46654:	54000120 	b.eq	46678 <psci_afflvl2_on+0x40>  // b.none
   46658:	f0000003 	adrp	x3, 49000 <asm_print_str+0x14>
   4665c:	90000021 	adrp	x1, 4a000 <__func__.2258+0x12>
   46660:	f0000000 	adrp	x0, 49000 <asm_print_str+0x14>
   46664:	913cf463 	add	x3, x3, #0xf3d
   46668:	52801682 	mov	w2, #0xb4                  	// #180
   4666c:	9100cc21 	add	x1, x1, #0x33
   46670:	913f7800 	add	x0, x0, #0xfde
   46674:	940006a0 	bl	480f4 <__assert>
   46678:	aa0003f5 	mov	x21, x0
   4667c:	aa0103e0 	mov	x0, x1
   46680:	f0000021 	adrp	x1, 4d000 <__STACKS_START__+0xfc0>
   46684:	f9474021 	ldr	x1, [x1, #3712]
   46688:	f9400433 	ldr	x19, [x1, #8]
   4668c:	b40001f3 	cbz	x19, 466c8 <psci_afflvl2_on+0x90>
   46690:	aa0203f7 	mov	x23, x2
   46694:	d0000016 	adrp	x22, 48000 <tf_printf+0x1dc>
   46698:	9400034c 	bl	473c8 <psci_get_phys_state>
   4669c:	12003c04 	and	w4, w0, #0xffff
   466a0:	2a1403e3 	mov	w3, w20
   466a4:	aa1703e2 	mov	x2, x23
   466a8:	9139e2c1 	add	x1, x22, #0xe78
   466ac:	aa1503e0 	mov	x0, x21
   466b0:	aa1303e5 	mov	x5, x19
   466b4:	f9401bf7 	ldr	x23, [sp, #48]
   466b8:	a94153f3 	ldp	x19, x20, [sp, #16]
   466bc:	a9425bf5 	ldp	x21, x22, [sp, #32]
   466c0:	a8c47bfd 	ldp	x29, x30, [sp], #64
   466c4:	d61f00a0 	br	x5
   466c8:	52800000 	mov	w0, #0x0                   	// #0
   466cc:	f9401bf7 	ldr	x23, [sp, #48]
   466d0:	a94153f3 	ldp	x19, x20, [sp, #16]
   466d4:	a9425bf5 	ldp	x21, x22, [sp, #32]
   466d8:	a8c47bfd 	ldp	x29, x30, [sp], #64
   466dc:	d65f03c0 	ret

00000000000466e0 <psci_afflvl1_on>:
   466e0:	a9bc7bfd 	stp	x29, x30, [sp, #-64]!
   466e4:	910003fd 	mov	x29, sp
   466e8:	a90153f3 	stp	x19, x20, [sp, #16]
   466ec:	a9025bf5 	stp	x21, x22, [sp, #32]
   466f0:	f9001bf7 	str	x23, [sp, #48]
   466f4:	39402c34 	ldrb	w20, [x1, #11]
   466f8:	7100069f 	cmp	w20, #0x1
   466fc:	54000120 	b.eq	46720 <psci_afflvl1_on+0x40>  // b.none
   46700:	f0000003 	adrp	x3, 49000 <asm_print_str+0x14>
   46704:	90000021 	adrp	x1, 4a000 <__func__.2258+0x12>
   46708:	f0000000 	adrp	x0, 49000 <asm_print_str+0x14>
   4670c:	913c6063 	add	x3, x3, #0xf18
   46710:	528011c2 	mov	w2, #0x8e                  	// #142
   46714:	9100cc21 	add	x1, x1, #0x33
   46718:	913f3800 	add	x0, x0, #0xfce
   4671c:	94000676 	bl	480f4 <__assert>
   46720:	aa0003f5 	mov	x21, x0
   46724:	aa0103e0 	mov	x0, x1
   46728:	f0000021 	adrp	x1, 4d000 <__STACKS_START__+0xfc0>
   4672c:	f9474021 	ldr	x1, [x1, #3712]
   46730:	f9400433 	ldr	x19, [x1, #8]
   46734:	b40001f3 	cbz	x19, 46770 <psci_afflvl1_on+0x90>
   46738:	aa0203f7 	mov	x23, x2
   4673c:	d0000016 	adrp	x22, 48000 <tf_printf+0x1dc>
   46740:	94000322 	bl	473c8 <psci_get_phys_state>
   46744:	12003c04 	and	w4, w0, #0xffff
   46748:	2a1403e3 	mov	w3, w20
   4674c:	aa1703e2 	mov	x2, x23
   46750:	9139e2c1 	add	x1, x22, #0xe78
   46754:	aa1503e0 	mov	x0, x21
   46758:	aa1303e5 	mov	x5, x19
   4675c:	f9401bf7 	ldr	x23, [sp, #48]
   46760:	a94153f3 	ldp	x19, x20, [sp, #16]
   46764:	a9425bf5 	ldp	x21, x22, [sp, #32]
   46768:	a8c47bfd 	ldp	x29, x30, [sp], #64
   4676c:	d61f00a0 	br	x5
   46770:	52800000 	mov	w0, #0x0                   	// #0
   46774:	f9401bf7 	ldr	x23, [sp, #48]
   46778:	a94153f3 	ldp	x19, x20, [sp, #16]
   4677c:	a9425bf5 	ldp	x21, x22, [sp, #32]
   46780:	a8c47bfd 	ldp	x29, x30, [sp], #64
   46784:	d65f03c0 	ret

0000000000046788 <psci_afflvl2_on_finish>:
   46788:	a9be7bfd 	stp	x29, x30, [sp, #-32]!
   4678c:	910003fd 	mov	x29, sp
   46790:	a90153f3 	stp	x19, x20, [sp, #16]
   46794:	39402c01 	ldrb	w1, [x0, #11]
   46798:	7100083f 	cmp	w1, #0x2
   4679c:	54000120 	b.eq	467c0 <psci_afflvl2_on_finish+0x38>  // b.none
   467a0:	f0000003 	adrp	x3, 49000 <asm_print_str+0x14>
   467a4:	90000021 	adrp	x1, 4a000 <__func__.2258+0x12>
   467a8:	90000020 	adrp	x0, 4a000 <__func__.2258+0x12>
   467ac:	913cf463 	add	x3, x3, #0xf3d
   467b0:	52803462 	mov	w2, #0x1a3                 	// #419
   467b4:	9100cc21 	add	x1, x1, #0x33
   467b8:	91007000 	add	x0, x0, #0x1c
   467bc:	9400064e 	bl	480f4 <__assert>
   467c0:	f0000034 	adrp	x20, 4d000 <__STACKS_START__+0xfc0>
   467c4:	f9474281 	ldr	x1, [x20, #3712]
   467c8:	f9401021 	ldr	x1, [x1, #32]
   467cc:	b4000161 	cbz	x1, 467f8 <psci_afflvl2_on_finish+0x70>
   467d0:	aa0003f3 	mov	x19, x0
   467d4:	940002fd 	bl	473c8 <psci_get_phys_state>
   467d8:	12003c02 	and	w2, w0, #0xffff
   467dc:	d53800a0 	mrs	x0, mpidr_el1
   467e0:	f9474281 	ldr	x1, [x20, #3712]
   467e4:	f9401023 	ldr	x3, [x1, #32]
   467e8:	39402e61 	ldrb	w1, [x19, #11]
   467ec:	a94153f3 	ldp	x19, x20, [sp, #16]
   467f0:	a8c27bfd 	ldp	x29, x30, [sp], #32
   467f4:	d61f0060 	br	x3
   467f8:	52800000 	mov	w0, #0x0                   	// #0
   467fc:	a94153f3 	ldp	x19, x20, [sp, #16]
   46800:	a8c27bfd 	ldp	x29, x30, [sp], #32
   46804:	d65f03c0 	ret

0000000000046808 <psci_afflvl1_on_finish>:
   46808:	a9be7bfd 	stp	x29, x30, [sp, #-32]!
   4680c:	910003fd 	mov	x29, sp
   46810:	a90153f3 	stp	x19, x20, [sp, #16]
   46814:	39402c01 	ldrb	w1, [x0, #11]
   46818:	7100043f 	cmp	w1, #0x1
   4681c:	54000120 	b.eq	46840 <psci_afflvl1_on_finish+0x38>  // b.none
   46820:	f0000003 	adrp	x3, 49000 <asm_print_str+0x14>
   46824:	90000021 	adrp	x1, 4a000 <__func__.2258+0x12>
   46828:	90000020 	adrp	x0, 4a000 <__func__.2258+0x12>
   4682c:	913c6063 	add	x3, x3, #0xf18
   46830:	52803142 	mov	w2, #0x18a                 	// #394
   46834:	9100cc21 	add	x1, x1, #0x33
   46838:	91001400 	add	x0, x0, #0x5
   4683c:	9400062e 	bl	480f4 <__assert>
   46840:	f0000034 	adrp	x20, 4d000 <__STACKS_START__+0xfc0>
   46844:	f9474281 	ldr	x1, [x20, #3712]
   46848:	f9401021 	ldr	x1, [x1, #32]
   4684c:	b4000161 	cbz	x1, 46878 <psci_afflvl1_on_finish+0x70>
   46850:	aa0003f3 	mov	x19, x0
   46854:	940002dd 	bl	473c8 <psci_get_phys_state>
   46858:	12003c02 	and	w2, w0, #0xffff
   4685c:	d53800a0 	mrs	x0, mpidr_el1
   46860:	f9474281 	ldr	x1, [x20, #3712]
   46864:	f9401023 	ldr	x3, [x1, #32]
   46868:	39402e61 	ldrb	w1, [x19, #11]
   4686c:	a94153f3 	ldp	x19, x20, [sp, #16]
   46870:	a8c27bfd 	ldp	x29, x30, [sp], #32
   46874:	d61f0060 	br	x3
   46878:	52800000 	mov	w0, #0x0                   	// #0
   4687c:	a94153f3 	ldp	x19, x20, [sp, #16]
   46880:	a8c27bfd 	ldp	x29, x30, [sp], #32
   46884:	d65f03c0 	ret

0000000000046888 <psci_afflvl_on>:
   46888:	a9b87bfd 	stp	x29, x30, [sp, #-128]!
   4688c:	910003fd 	mov	x29, sp
   46890:	a90153f3 	stp	x19, x20, [sp, #16]
   46894:	2a0303f4 	mov	w20, w3
   46898:	a9025bf5 	stp	x21, x22, [sp, #32]
   4689c:	9101a3b6 	add	x22, x29, #0x68
   468a0:	a90363f7 	stp	x23, x24, [sp, #48]
   468a4:	2a0403f5 	mov	w21, w4
   468a8:	a9046bf9 	stp	x25, x26, [sp, #64]
   468ac:	aa1603e3 	mov	x3, x22
   468b0:	f9002bfb 	str	x27, [sp, #80]
   468b4:	aa0103fa 	mov	x26, x1
   468b8:	aa0203fb 	mov	x27, x2
   468bc:	aa0003f9 	mov	x25, x0
   468c0:	2a1403e1 	mov	w1, w20
   468c4:	2a0403e2 	mov	w2, w4
   468c8:	9400049d 	bl	47b3c <psci_get_aff_map_nodes>
   468cc:	35000500 	cbnz	w0, 4696c <psci_afflvl_on+0xe4>
   468d0:	90000038 	adrp	x24, 4a000 <__func__.2258+0x12>
   468d4:	93407eb7 	sxtw	x23, w21
   468d8:	91024318 	add	x24, x24, #0x90
   468dc:	12800033 	mov	w19, #0xfffffffe            	// #-2
   468e0:	aa1603e2 	mov	x2, x22
   468e4:	2a1503e1 	mov	w1, w21
   468e8:	2a1403e0 	mov	w0, w20
   468ec:	940001db 	bl	47058 <psci_acquire_afflvl_locks>
   468f0:	6b17029f 	cmp	w20, w23
   468f4:	5400026d 	b.le	46940 <psci_afflvl_on+0xb8>
   468f8:	350000d3 	cbnz	w19, 46910 <psci_afflvl_on+0x88>
   468fc:	52800043 	mov	w3, #0x2                   	// #2
   46900:	aa1603e2 	mov	x2, x22
   46904:	2a1503e1 	mov	w1, w21
   46908:	2a1403e0 	mov	w0, w20
   4690c:	9400029b 	bl	47378 <psci_do_afflvl_state_mgmt>
   46910:	aa1603e2 	mov	x2, x22
   46914:	2a1503e1 	mov	w1, w21
   46918:	2a1403e0 	mov	w0, w20
   4691c:	940001e2 	bl	470a4 <psci_release_afflvl_locks>
   46920:	2a1303e0 	mov	w0, w19
   46924:	f9402bfb 	ldr	x27, [sp, #80]
   46928:	a94153f3 	ldp	x19, x20, [sp, #16]
   4692c:	a9425bf5 	ldp	x21, x22, [sp, #32]
   46930:	a94363f7 	ldp	x23, x24, [sp, #48]
   46934:	a9446bf9 	ldp	x25, x26, [sp, #64]
   46938:	a8c87bfd 	ldp	x29, x30, [sp], #128
   4693c:	d65f03c0 	ret
   46940:	f8777ac1 	ldr	x1, [x22, x23, lsl #3]
   46944:	b4000101 	cbz	x1, 46964 <psci_afflvl_on+0xdc>
   46948:	f8777b04 	ldr	x4, [x24, x23, lsl #3]
   4694c:	aa1b03e3 	mov	x3, x27
   46950:	aa1a03e2 	mov	x2, x26
   46954:	aa1903e0 	mov	x0, x25
   46958:	d63f0080 	blr	x4
   4695c:	2a0003f3 	mov	w19, w0
   46960:	35fffd80 	cbnz	w0, 46910 <psci_afflvl_on+0x88>
   46964:	d10006f7 	sub	x23, x23, #0x1
   46968:	17ffffe2 	b	468f0 <psci_afflvl_on+0x68>
   4696c:	2a0003f3 	mov	w19, w0
   46970:	17ffffec 	b	46920 <psci_afflvl_on+0x98>

0000000000046974 <psci_afflvl2_suspend_finish>:
   46974:	a9be7bfd 	stp	x29, x30, [sp, #-32]!
   46978:	910003fd 	mov	x29, sp
   4697c:	a90153f3 	stp	x19, x20, [sp, #16]
   46980:	39402c01 	ldrb	w1, [x0, #11]
   46984:	7100083f 	cmp	w1, #0x2
   46988:	54000120 	b.eq	469ac <psci_afflvl2_suspend_finish+0x38>  // b.none
   4698c:	f0000003 	adrp	x3, 49000 <asm_print_str+0x14>
   46990:	913cf463 	add	x3, x3, #0xf3d
   46994:	52803e22 	mov	w2, #0x1f1                 	// #497
   46998:	90000021 	adrp	x1, 4a000 <__func__.2258+0x12>
   4699c:	90000020 	adrp	x0, 4a000 <__func__.2258+0x12>
   469a0:	91063821 	add	x1, x1, #0x18e
   469a4:	9104cc00 	add	x0, x0, #0x133
   469a8:	940005d3 	bl	480f4 <__assert>
   469ac:	f0000034 	adrp	x20, 4d000 <__STACKS_START__+0xfc0>
   469b0:	f9474281 	ldr	x1, [x20, #3712]
   469b4:	f9401421 	ldr	x1, [x1, #40]
   469b8:	b40001c1 	cbz	x1, 469f0 <psci_afflvl2_suspend_finish+0x7c>
   469bc:	aa0003f3 	mov	x19, x0
   469c0:	94000282 	bl	473c8 <psci_get_phys_state>
   469c4:	12003c02 	and	w2, w0, #0xffff
   469c8:	d53800a0 	mrs	x0, mpidr_el1
   469cc:	f9474281 	ldr	x1, [x20, #3712]
   469d0:	f9401423 	ldr	x3, [x1, #40]
   469d4:	39402e61 	ldrb	w1, [x19, #11]
   469d8:	d63f0060 	blr	x3
   469dc:	340000a0 	cbz	w0, 469f0 <psci_afflvl2_suspend_finish+0x7c>
   469e0:	90000023 	adrp	x3, 4a000 <__func__.2258+0x12>
   469e4:	528040e2 	mov	w2, #0x207                 	// #519
   469e8:	91110063 	add	x3, x3, #0x440
   469ec:	17ffffeb 	b	46998 <psci_afflvl2_suspend_finish+0x24>
   469f0:	52800000 	mov	w0, #0x0                   	// #0
   469f4:	a94153f3 	ldp	x19, x20, [sp, #16]
   469f8:	a8c27bfd 	ldp	x29, x30, [sp], #32
   469fc:	d65f03c0 	ret

0000000000046a00 <psci_afflvl1_suspend_finish>:
   46a00:	a9be7bfd 	stp	x29, x30, [sp, #-32]!
   46a04:	910003fd 	mov	x29, sp
   46a08:	a90153f3 	stp	x19, x20, [sp, #16]
   46a0c:	39402c01 	ldrb	w1, [x0, #11]
   46a10:	7100043f 	cmp	w1, #0x1
   46a14:	54000120 	b.eq	46a38 <psci_afflvl1_suspend_finish+0x38>  // b.none
   46a18:	f0000003 	adrp	x3, 49000 <asm_print_str+0x14>
   46a1c:	913c6063 	add	x3, x3, #0xf18
   46a20:	52803a82 	mov	w2, #0x1d4                 	// #468
   46a24:	90000021 	adrp	x1, 4a000 <__func__.2258+0x12>
   46a28:	90000020 	adrp	x0, 4a000 <__func__.2258+0x12>
   46a2c:	91063821 	add	x1, x1, #0x18e
   46a30:	91045c00 	add	x0, x0, #0x117
   46a34:	940005b0 	bl	480f4 <__assert>
   46a38:	f0000034 	adrp	x20, 4d000 <__STACKS_START__+0xfc0>
   46a3c:	f9474281 	ldr	x1, [x20, #3712]
   46a40:	f9401421 	ldr	x1, [x1, #40]
   46a44:	b40001c1 	cbz	x1, 46a7c <psci_afflvl1_suspend_finish+0x7c>
   46a48:	aa0003f3 	mov	x19, x0
   46a4c:	9400025f 	bl	473c8 <psci_get_phys_state>
   46a50:	12003c02 	and	w2, w0, #0xffff
   46a54:	d53800a0 	mrs	x0, mpidr_el1
   46a58:	f9474281 	ldr	x1, [x20, #3712]
   46a5c:	f9401423 	ldr	x3, [x1, #40]
   46a60:	39402e61 	ldrb	w1, [x19, #11]
   46a64:	d63f0060 	blr	x3
   46a68:	340000a0 	cbz	w0, 46a7c <psci_afflvl1_suspend_finish+0x7c>
   46a6c:	90000023 	adrp	x3, 4a000 <__func__.2258+0x12>
   46a70:	52803ca2 	mov	w2, #0x1e5                 	// #485
   46a74:	91110063 	add	x3, x3, #0x440
   46a78:	17ffffeb 	b	46a24 <psci_afflvl1_suspend_finish+0x24>
   46a7c:	52800000 	mov	w0, #0x0                   	// #0
   46a80:	a94153f3 	ldp	x19, x20, [sp, #16]
   46a84:	a8c27bfd 	ldp	x29, x30, [sp], #32
   46a88:	d65f03c0 	ret

0000000000046a8c <psci_afflvl2_suspend>:
   46a8c:	a9bd7bfd 	stp	x29, x30, [sp, #-48]!
   46a90:	910003fd 	mov	x29, sp
   46a94:	a90153f3 	stp	x19, x20, [sp, #16]
   46a98:	f90013f5 	str	x21, [sp, #32]
   46a9c:	39402c14 	ldrb	w20, [x0, #11]
   46aa0:	71000a9f 	cmp	w20, #0x2
   46aa4:	54000120 	b.eq	46ac8 <psci_afflvl2_suspend+0x3c>  // b.none
   46aa8:	f0000003 	adrp	x3, 49000 <asm_print_str+0x14>
   46aac:	90000021 	adrp	x1, 4a000 <__func__.2258+0x12>
   46ab0:	90000020 	adrp	x0, 4a000 <__func__.2258+0x12>
   46ab4:	913cf463 	add	x3, x3, #0xf3d
   46ab8:	52801b42 	mov	w2, #0xda                  	// #218
   46abc:	91063821 	add	x1, x1, #0x18e
   46ac0:	91034800 	add	x0, x0, #0xd2
   46ac4:	9400058c 	bl	480f4 <__assert>
   46ac8:	aa0103f5 	mov	x21, x1
   46acc:	aa0003f3 	mov	x19, x0
   46ad0:	9400023e 	bl	473c8 <psci_get_phys_state>
   46ad4:	2a1403e0 	mov	w0, w20
   46ad8:	f0000034 	adrp	x20, 4d000 <__STACKS_START__+0xfc0>
   46adc:	94000903 	bl	48ee8 <psci_do_pwrdown_cache_maintenance>
   46ae0:	f9474280 	ldr	x0, [x20, #3712]
   46ae4:	f9400c00 	ldr	x0, [x0, #24]
   46ae8:	b40001e0 	cbz	x0, 46b24 <psci_afflvl2_suspend+0x98>
   46aec:	aa1303e0 	mov	x0, x19
   46af0:	94000236 	bl	473c8 <psci_get_phys_state>
   46af4:	12003c04 	and	w4, w0, #0xffff
   46af8:	d53800a0 	mrs	x0, mpidr_el1
   46afc:	f9474281 	ldr	x1, [x20, #3712]
   46b00:	aa1503e2 	mov	x2, x21
   46b04:	39402e63 	ldrb	w3, [x19, #11]
   46b08:	a94153f3 	ldp	x19, x20, [sp, #16]
   46b0c:	f9400c25 	ldr	x5, [x1, #24]
   46b10:	d0000001 	adrp	x1, 48000 <tf_printf+0x1dc>
   46b14:	f94013f5 	ldr	x21, [sp, #32]
   46b18:	913a0021 	add	x1, x1, #0xe80
   46b1c:	a8c37bfd 	ldp	x29, x30, [sp], #48
   46b20:	d61f00a0 	br	x5
   46b24:	52800000 	mov	w0, #0x0                   	// #0
   46b28:	f94013f5 	ldr	x21, [sp, #32]
   46b2c:	a94153f3 	ldp	x19, x20, [sp, #16]
   46b30:	a8c37bfd 	ldp	x29, x30, [sp], #48
   46b34:	d65f03c0 	ret

0000000000046b38 <psci_afflvl1_suspend>:
   46b38:	a9bd7bfd 	stp	x29, x30, [sp, #-48]!
   46b3c:	910003fd 	mov	x29, sp
   46b40:	a90153f3 	stp	x19, x20, [sp, #16]
   46b44:	aa0003f3 	mov	x19, x0
   46b48:	f90013f5 	str	x21, [sp, #32]
   46b4c:	39402c00 	ldrb	w0, [x0, #11]
   46b50:	7100041f 	cmp	w0, #0x1
   46b54:	54000120 	b.eq	46b78 <psci_afflvl1_suspend+0x40>  // b.none
   46b58:	f0000003 	adrp	x3, 49000 <asm_print_str+0x14>
   46b5c:	90000021 	adrp	x1, 4a000 <__func__.2258+0x12>
   46b60:	90000020 	adrp	x0, 4a000 <__func__.2258+0x12>
   46b64:	913c6063 	add	x3, x3, #0xf18
   46b68:	52801682 	mov	w2, #0xb4                  	// #180
   46b6c:	91063821 	add	x1, x1, #0x18e
   46b70:	9102f400 	add	x0, x0, #0xbd
   46b74:	94000560 	bl	480f4 <__assert>
   46b78:	f0000034 	adrp	x20, 4d000 <__STACKS_START__+0xfc0>
   46b7c:	aa0103f5 	mov	x21, x1
   46b80:	940008da 	bl	48ee8 <psci_do_pwrdown_cache_maintenance>
   46b84:	f9474280 	ldr	x0, [x20, #3712]
   46b88:	f9400c00 	ldr	x0, [x0, #24]
   46b8c:	b40001e0 	cbz	x0, 46bc8 <psci_afflvl1_suspend+0x90>
   46b90:	aa1303e0 	mov	x0, x19
   46b94:	9400020d 	bl	473c8 <psci_get_phys_state>
   46b98:	12003c04 	and	w4, w0, #0xffff
   46b9c:	d53800a0 	mrs	x0, mpidr_el1
   46ba0:	f9474281 	ldr	x1, [x20, #3712]
   46ba4:	aa1503e2 	mov	x2, x21
   46ba8:	39402e63 	ldrb	w3, [x19, #11]
   46bac:	a94153f3 	ldp	x19, x20, [sp, #16]
   46bb0:	f9400c25 	ldr	x5, [x1, #24]
   46bb4:	d0000001 	adrp	x1, 48000 <tf_printf+0x1dc>
   46bb8:	f94013f5 	ldr	x21, [sp, #32]
   46bbc:	913a0021 	add	x1, x1, #0xe80
   46bc0:	a8c37bfd 	ldp	x29, x30, [sp], #48
   46bc4:	d61f00a0 	br	x5
   46bc8:	52800000 	mov	w0, #0x0                   	// #0
   46bcc:	f94013f5 	ldr	x21, [sp, #32]
   46bd0:	a94153f3 	ldp	x19, x20, [sp, #16]
   46bd4:	a8c37bfd 	ldp	x29, x30, [sp], #48
   46bd8:	d65f03c0 	ret

0000000000046bdc <psci_set_suspend_power_state>:
   46bdc:	d53ed041 	mrs	x1, tpidr_el3
   46be0:	b9001820 	str	w0, [x1, #24]
   46be4:	d53ed040 	mrs	x0, tpidr_el3
   46be8:	d2800081 	mov	x1, #0x4                   	// #4
   46bec:	91006000 	add	x0, x0, #0x18
   46bf0:	14000920 	b	49070 <flush_dcache_range>

0000000000046bf4 <psci_afflvl0_suspend>:
   46bf4:	a9bc7bfd 	stp	x29, x30, [sp, #-64]!
   46bf8:	910003fd 	mov	x29, sp
   46bfc:	a90153f3 	stp	x19, x20, [sp, #16]
   46c00:	aa0003f4 	mov	x20, x0
   46c04:	a9025bf5 	stp	x21, x22, [sp, #32]
   46c08:	a90363f7 	stp	x23, x24, [sp, #48]
   46c0c:	d53e1117 	mrs	x23, scr_el3
   46c10:	d5381018 	mrs	x24, sctlr_el1
   46c14:	39402c00 	ldrb	w0, [x0, #11]
   46c18:	34000120 	cbz	w0, 46c3c <psci_afflvl0_suspend+0x48>
   46c1c:	f0000003 	adrp	x3, 49000 <asm_print_str+0x14>
   46c20:	90000021 	adrp	x1, 4a000 <__func__.2258+0x12>
   46c24:	90000020 	adrp	x0, 4a000 <__func__.2258+0x12>
   46c28:	913bdc63 	add	x3, x3, #0xef7
   46c2c:	52800ee2 	mov	w2, #0x77                  	// #119
   46c30:	91063821 	add	x1, x1, #0x18e
   46c34:	9102a000 	add	x0, x0, #0xa8
   46c38:	9400052f 	bl	480f4 <__assert>
   46c3c:	2a0303e0 	mov	w0, w3
   46c40:	aa0103f6 	mov	x22, x1
   46c44:	aa0203f5 	mov	x21, x2
   46c48:	2a0303f3 	mov	w19, w3
   46c4c:	97ffffe4 	bl	46bdc <psci_set_suspend_power_state>
   46c50:	f0000020 	adrp	x0, 4d000 <__STACKS_START__+0xfc0>
   46c54:	f9474400 	ldr	x0, [x0, #3720]
   46c58:	b40000a0 	cbz	x0, 46c6c <psci_afflvl0_suspend+0x78>
   46c5c:	f9400801 	ldr	x1, [x0, #16]
   46c60:	b4000061 	cbz	x1, 46c6c <psci_afflvl0_suspend+0x78>
   46c64:	2a1303e0 	mov	w0, w19
   46c68:	d63f0020 	blr	x1
   46c6c:	d53800a0 	mrs	x0, mpidr_el1
   46c70:	2a1803e4 	mov	w4, w24
   46c74:	2a1703e3 	mov	w3, w23
   46c78:	aa1503e2 	mov	x2, x21
   46c7c:	aa1603e1 	mov	x1, x22
   46c80:	94000128 	bl	47120 <psci_save_ns_entry>
   46c84:	2a0003f3 	mov	w19, w0
   46c88:	350002c0 	cbnz	w0, 46ce0 <psci_afflvl0_suspend+0xec>
   46c8c:	94000897 	bl	48ee8 <psci_do_pwrdown_cache_maintenance>
   46c90:	f0000020 	adrp	x0, 4d000 <__STACKS_START__+0xfc0>
   46c94:	f9474000 	ldr	x0, [x0, #3712]
   46c98:	f9400c15 	ldr	x21, [x0, #24]
   46c9c:	b4000235 	cbz	x21, 46ce0 <psci_afflvl0_suspend+0xec>
   46ca0:	d53800b3 	mrs	x19, mpidr_el1
   46ca4:	39402e97 	ldrb	w23, [x20, #11]
   46ca8:	aa1403e0 	mov	x0, x20
   46cac:	940001c7 	bl	473c8 <psci_get_phys_state>
   46cb0:	12003c04 	and	w4, w0, #0xffff
   46cb4:	2a1703e3 	mov	w3, w23
   46cb8:	aa1603e2 	mov	x2, x22
   46cbc:	aa1303e0 	mov	x0, x19
   46cc0:	aa1503e5 	mov	x5, x21
   46cc4:	a94153f3 	ldp	x19, x20, [sp, #16]
   46cc8:	d0000001 	adrp	x1, 48000 <tf_printf+0x1dc>
   46ccc:	a9425bf5 	ldp	x21, x22, [sp, #32]
   46cd0:	913a0021 	add	x1, x1, #0xe80
   46cd4:	a94363f7 	ldp	x23, x24, [sp, #48]
   46cd8:	a8c47bfd 	ldp	x29, x30, [sp], #64
   46cdc:	d61f00a0 	br	x5
   46ce0:	2a1303e0 	mov	w0, w19
   46ce4:	a94153f3 	ldp	x19, x20, [sp, #16]
   46ce8:	a9425bf5 	ldp	x21, x22, [sp, #32]
   46cec:	a94363f7 	ldp	x23, x24, [sp, #48]
   46cf0:	a8c47bfd 	ldp	x29, x30, [sp], #64
   46cf4:	d65f03c0 	ret

0000000000046cf8 <psci_get_suspend_afflvl>:
   46cf8:	d53ed040 	mrs	x0, tpidr_el3
   46cfc:	b9401800 	ldr	w0, [x0, #24]
   46d00:	3100041f 	cmn	w0, #0x1
   46d04:	54000040 	b.eq	46d0c <psci_get_suspend_afflvl+0x14>  // b.none
   46d08:	d3586400 	ubfx	x0, x0, #24, #2
   46d0c:	d65f03c0 	ret

0000000000046d10 <psci_afflvl0_suspend_finish>:
   46d10:	a9be7bfd 	stp	x29, x30, [sp, #-32]!
   46d14:	910003fd 	mov	x29, sp
   46d18:	f9000bf3 	str	x19, [sp, #16]
   46d1c:	39402c01 	ldrb	w1, [x0, #11]
   46d20:	34000121 	cbz	w1, 46d44 <psci_afflvl0_suspend_finish+0x34>
   46d24:	f0000003 	adrp	x3, 49000 <asm_print_str+0x14>
   46d28:	913bdc63 	add	x3, x3, #0xef7
   46d2c:	52803222 	mov	w2, #0x191                 	// #401
   46d30:	90000021 	adrp	x1, 4a000 <__func__.2258+0x12>
   46d34:	90000020 	adrp	x0, 4a000 <__func__.2258+0x12>
   46d38:	91063821 	add	x1, x1, #0x18e
   46d3c:	9103ec00 	add	x0, x0, #0xfb
   46d40:	940004ed 	bl	480f4 <__assert>
   46d44:	aa0003f3 	mov	x19, x0
   46d48:	9400012f 	bl	47204 <psci_get_state>
   46d4c:	12003c00 	and	w0, w0, #0xffff
   46d50:	71000c1f 	cmp	w0, #0x3
   46d54:	540000a0 	b.eq	46d68 <psci_afflvl0_suspend_finish+0x58>  // b.none
   46d58:	90000023 	adrp	x3, 4a000 <__func__.2258+0x12>
   46d5c:	528032a2 	mov	w2, #0x195                 	// #405
   46d60:	91053c63 	add	x3, x3, #0x14f
   46d64:	17fffff3 	b	46d30 <psci_afflvl0_suspend_finish+0x20>
   46d68:	f0000020 	adrp	x0, 4d000 <__STACKS_START__+0xfc0>
   46d6c:	f9474000 	ldr	x0, [x0, #3712]
   46d70:	f9401403 	ldr	x3, [x0, #40]
   46d74:	b4000143 	cbz	x3, 46d9c <psci_afflvl0_suspend_finish+0x8c>
   46d78:	d53800a0 	mrs	x0, mpidr_el1
   46d7c:	39402e61 	ldrb	w1, [x19, #11]
   46d80:	52800022 	mov	w2, #0x1                   	// #1
   46d84:	d63f0060 	blr	x3
   46d88:	340000a0 	cbz	w0, 46d9c <psci_afflvl0_suspend_finish+0x8c>
   46d8c:	90000023 	adrp	x3, 4a000 <__func__.2258+0x12>
   46d90:	528034a2 	mov	w2, #0x1a5                 	// #421
   46d94:	91110063 	add	x3, x3, #0x440
   46d98:	17ffffe6 	b	46d30 <psci_afflvl0_suspend_finish+0x20>
   46d9c:	94000870 	bl	48f5c <psci_do_pwrup_cache_maintenance>
   46da0:	97fffa6f 	bl	4575c <plat_get_syscnt_freq>
   46da4:	d51be000 	msr	cntfrq_el0, x0
   46da8:	f0000021 	adrp	x1, 4d000 <__STACKS_START__+0xfc0>
   46dac:	f9474420 	ldr	x0, [x1, #3720]
   46db0:	b40001c0 	cbz	x0, 46de8 <psci_afflvl0_suspend_finish+0xd8>
   46db4:	f9400800 	ldr	x0, [x0, #16]
   46db8:	b4000180 	cbz	x0, 46de8 <psci_afflvl0_suspend_finish+0xd8>
   46dbc:	97ffffcf 	bl	46cf8 <psci_get_suspend_afflvl>
   46dc0:	3100041f 	cmn	w0, #0x1
   46dc4:	540000a1 	b.ne	46dd8 <psci_afflvl0_suspend_finish+0xc8>  // b.any
   46dc8:	90000023 	adrp	x3, 4a000 <__func__.2258+0x12>
   46dcc:	52803762 	mov	w2, #0x1bb                 	// #443
   46dd0:	9105ac63 	add	x3, x3, #0x16b
   46dd4:	17ffffd7 	b	46d30 <psci_afflvl0_suspend_finish+0x20>
   46dd8:	f9474421 	ldr	x1, [x1, #3720]
   46ddc:	93407c00 	sxtw	x0, w0
   46de0:	f9401021 	ldr	x1, [x1, #32]
   46de4:	d63f0020 	blr	x1
   46de8:	12800000 	mov	w0, #0xffffffff            	// #-1
   46dec:	97ffff7c 	bl	46bdc <psci_set_suspend_power_state>
   46df0:	52800020 	mov	w0, #0x1                   	// #1
   46df4:	97fffb6e 	bl	45bac <cm_prepare_el3_exit>
   46df8:	52800040 	mov	w0, #0x2                   	// #2
   46dfc:	940008ef 	bl	491b8 <dcsw_op_louis>
   46e00:	52800000 	mov	w0, #0x0                   	// #0
   46e04:	f9400bf3 	ldr	x19, [sp, #16]
   46e08:	a8c27bfd 	ldp	x29, x30, [sp], #32
   46e0c:	d65f03c0 	ret

0000000000046e10 <psci_afflvl_suspend>:
   46e10:	a9b87bfd 	stp	x29, x30, [sp, #-128]!
   46e14:	910003fd 	mov	x29, sp
   46e18:	a90153f3 	stp	x19, x20, [sp, #16]
   46e1c:	2a0303f3 	mov	w19, w3
   46e20:	a9025bf5 	stp	x21, x22, [sp, #32]
   46e24:	2a0403f4 	mov	w20, w4
   46e28:	a90363f7 	stp	x23, x24, [sp, #48]
   46e2c:	a9046bf9 	stp	x25, x26, [sp, #64]
   46e30:	aa0003f9 	mov	x25, x0
   46e34:	f9002bfb 	str	x27, [sp, #80]
   46e38:	aa0103fa 	mov	x26, x1
   46e3c:	2a0203fb 	mov	w27, w2
   46e40:	d53800a0 	mrs	x0, mpidr_el1
   46e44:	9101a3b5 	add	x21, x29, #0x68
   46e48:	92409c00 	and	x0, x0, #0xffffffffff
   46e4c:	aa1503e3 	mov	x3, x21
   46e50:	2a0403e2 	mov	w2, w4
   46e54:	2a1303e1 	mov	w1, w19
   46e58:	9260dc00 	and	x0, x0, #0xffffffff00ffffff
   46e5c:	94000338 	bl	47b3c <psci_get_aff_map_nodes>
   46e60:	35000700 	cbnz	w0, 46f40 <psci_afflvl_suspend+0x130>
   46e64:	aa1503e2 	mov	x2, x21
   46e68:	2a1403e1 	mov	w1, w20
   46e6c:	2a1303e0 	mov	w0, w19
   46e70:	9400007a 	bl	47058 <psci_acquire_afflvl_locks>
   46e74:	52800063 	mov	w3, #0x3                   	// #3
   46e78:	aa1503e2 	mov	x2, x21
   46e7c:	2a1403e1 	mov	w1, w20
   46e80:	2a1303e0 	mov	w0, w19
   46e84:	9400013d 	bl	47378 <psci_do_afflvl_state_mgmt>
   46e88:	aa1503e2 	mov	x2, x21
   46e8c:	2a1403e1 	mov	w1, w20
   46e90:	2a1303e0 	mov	w0, w19
   46e94:	94000154 	bl	473e4 <psci_find_max_phys_off_afflvl>
   46e98:	3100041f 	cmn	w0, #0x1
   46e9c:	54000121 	b.ne	46ec0 <psci_afflvl_suspend+0xb0>  // b.any
   46ea0:	f0000003 	adrp	x3, 49000 <asm_print_str+0x14>
   46ea4:	90000021 	adrp	x1, 4a000 <__func__.2258+0x12>
   46ea8:	90000020 	adrp	x0, 4a000 <__func__.2258+0x12>
   46eac:	9119d063 	add	x3, x3, #0x674
   46eb0:	52802d02 	mov	w2, #0x168                 	// #360
   46eb4:	91063821 	add	x1, x1, #0x18e
   46eb8:	91039c00 	add	x0, x0, #0xe7
   46ebc:	9400048e 	bl	480f4 <__assert>
   46ec0:	90000038 	adrp	x24, 4a000 <__func__.2258+0x12>
   46ec4:	93407e77 	sxtw	x23, w19
   46ec8:	91076318 	add	x24, x24, #0x1d8
   46ecc:	12800036 	mov	w22, #0xfffffffe            	// #-2
   46ed0:	9400001e 	bl	46f48 <psci_set_max_phys_off_afflvl>
   46ed4:	6b17029f 	cmp	w20, w23
   46ed8:	540001ea 	b.ge	46f14 <psci_afflvl_suspend+0x104>  // b.tcont
   46edc:	12800000 	mov	w0, #0xffffffff            	// #-1
   46ee0:	9400001a 	bl	46f48 <psci_set_max_phys_off_afflvl>
   46ee4:	aa1503e2 	mov	x2, x21
   46ee8:	2a1403e1 	mov	w1, w20
   46eec:	2a1303e0 	mov	w0, w19
   46ef0:	9400006d 	bl	470a4 <psci_release_afflvl_locks>
   46ef4:	2a1603e0 	mov	w0, w22
   46ef8:	f9402bfb 	ldr	x27, [sp, #80]
   46efc:	a94153f3 	ldp	x19, x20, [sp, #16]
   46f00:	a9425bf5 	ldp	x21, x22, [sp, #32]
   46f04:	a94363f7 	ldp	x23, x24, [sp, #48]
   46f08:	a9446bf9 	ldp	x25, x26, [sp, #64]
   46f0c:	a8c87bfd 	ldp	x29, x30, [sp], #128
   46f10:	d65f03c0 	ret
   46f14:	f8777aa0 	ldr	x0, [x21, x23, lsl #3]
   46f18:	b4000100 	cbz	x0, 46f38 <psci_afflvl_suspend+0x128>
   46f1c:	f8777b04 	ldr	x4, [x24, x23, lsl #3]
   46f20:	2a1b03e3 	mov	w3, w27
   46f24:	aa1a03e2 	mov	x2, x26
   46f28:	aa1903e1 	mov	x1, x25
   46f2c:	d63f0080 	blr	x4
   46f30:	2a0003f6 	mov	w22, w0
   46f34:	35fffd40 	cbnz	w0, 46edc <psci_afflvl_suspend+0xcc>
   46f38:	910006f7 	add	x23, x23, #0x1
   46f3c:	17ffffe6 	b	46ed4 <psci_afflvl_suspend+0xc4>
   46f40:	2a0003f6 	mov	w22, w0
   46f44:	17ffffec 	b	46ef4 <psci_afflvl_suspend+0xe4>

0000000000046f48 <psci_set_max_phys_off_afflvl>:
   46f48:	d53ed041 	mrs	x1, tpidr_el3
   46f4c:	b9001c20 	str	w0, [x1, #28]
   46f50:	d53ed040 	mrs	x0, tpidr_el3
   46f54:	d2800081 	mov	x1, #0x4                   	// #4
   46f58:	91007000 	add	x0, x0, #0x1c
   46f5c:	14000845 	b	49070 <flush_dcache_range>

0000000000046f60 <psci_get_max_phys_off_afflvl>:
   46f60:	a9bf7bfd 	stp	x29, x30, [sp, #-16]!
   46f64:	910003fd 	mov	x29, sp
   46f68:	d53ed040 	mrs	x0, tpidr_el3
   46f6c:	d2800081 	mov	x1, #0x4                   	// #4
   46f70:	91007000 	add	x0, x0, #0x1c
   46f74:	9400083f 	bl	49070 <flush_dcache_range>
   46f78:	d53ed040 	mrs	x0, tpidr_el3
   46f7c:	a8c17bfd 	ldp	x29, x30, [sp], #16
   46f80:	b9401c00 	ldr	w0, [x0, #28]
   46f84:	d65f03c0 	ret

0000000000046f88 <get_max_afflvl>:
   46f88:	a9bf7bfd 	stp	x29, x30, [sp, #-16]!
   46f8c:	910003fd 	mov	x29, sp
   46f90:	97fff964 	bl	45520 <plat_get_max_afflvl>
   46f94:	7100081f 	cmp	w0, #0x2
   46f98:	54000129 	b.ls	46fbc <get_max_afflvl+0x34>  // b.plast
   46f9c:	90000023 	adrp	x3, 4a000 <__func__.2258+0x12>
   46fa0:	90000021 	adrp	x1, 4a000 <__func__.2258+0x12>
   46fa4:	90000020 	adrp	x0, 4a000 <__func__.2258+0x12>
   46fa8:	9109ac63 	add	x3, x3, #0x26b
   46fac:	52801502 	mov	w2, #0xa8                  	// #168
   46fb0:	910a8c21 	add	x1, x1, #0x2a3
   46fb4:	91083c00 	add	x0, x0, #0x20f
   46fb8:	9400044f 	bl	480f4 <__assert>
   46fbc:	a8c17bfd 	ldp	x29, x30, [sp], #16
   46fc0:	d65f03c0 	ret

0000000000046fc4 <mpidr_set_aff_inst>:
   46fc4:	a9be7bfd 	stp	x29, x30, [sp, #-32]!
   46fc8:	71000c5f 	cmp	w2, #0x3
   46fcc:	910003fd 	mov	x29, sp
   46fd0:	a90153f3 	stp	x19, x20, [sp, #16]
   46fd4:	5400012d 	b.le	46ff8 <mpidr_set_aff_inst+0x34>
   46fd8:	90000023 	adrp	x3, 4a000 <__func__.2258+0x12>
   46fdc:	90000021 	adrp	x1, 4a000 <__func__.2258+0x12>
   46fe0:	90000020 	adrp	x0, 4a000 <__func__.2258+0x12>
   46fe4:	910c2863 	add	x3, x3, #0x30a
   46fe8:	528016e2 	mov	w2, #0xb7                  	// #183
   46fec:	910a8c21 	add	x1, x1, #0x2a3
   46ff0:	91087800 	add	x0, x0, #0x21e
   46ff4:	94000440 	bl	480f4 <__assert>
   46ff8:	12001c33 	and	w19, w1, #0xff
   46ffc:	aa0003f4 	mov	x20, x0
   47000:	2a0203e0 	mov	w0, w2
   47004:	94000875 	bl	491d8 <get_afflvl_shift>
   47008:	52801fe2 	mov	w2, #0xff                  	// #255
   4700c:	1ac02042 	lsl	w2, w2, w0
   47010:	2a2203e2 	mvn	w2, w2
   47014:	1ac02260 	lsl	w0, w19, w0
   47018:	93407c42 	sxtw	x2, w2
   4701c:	93407c00 	sxtw	x0, w0
   47020:	8a140042 	and	x2, x2, x20
   47024:	aa020000 	orr	x0, x0, x2
   47028:	a94153f3 	ldp	x19, x20, [sp, #16]
   4702c:	a8c27bfd 	ldp	x29, x30, [sp], #32
   47030:	d65f03c0 	ret

0000000000047034 <psci_check_afflvl_range>:
   47034:	7100083f 	cmp	w1, #0x2
   47038:	540000cc 	b.gt	47050 <psci_check_afflvl_range+0x1c>
   4703c:	37f800a0 	tbnz	w0, #31, 47050 <psci_check_afflvl_range+0x1c>
   47040:	6b00003f 	cmp	w1, w0
   47044:	12800020 	mov	w0, #0xfffffffe            	// #-2
   47048:	1a9fb000 	csel	w0, w0, wzr, lt  // lt = tstop
   4704c:	d65f03c0 	ret
   47050:	12800020 	mov	w0, #0xfffffffe            	// #-2
   47054:	17fffffe 	b	4704c <psci_check_afflvl_range+0x18>

0000000000047058 <psci_acquire_afflvl_locks>:
   47058:	a9bd7bfd 	stp	x29, x30, [sp, #-48]!
   4705c:	910003fd 	mov	x29, sp
   47060:	a90153f3 	stp	x19, x20, [sp, #16]
   47064:	2a0103f4 	mov	w20, w1
   47068:	f90013f5 	str	x21, [sp, #32]
   4706c:	93407c13 	sxtw	x19, w0
   47070:	aa0203f5 	mov	x21, x2
   47074:	6b13029f 	cmp	w20, w19
   47078:	540000aa 	b.ge	4708c <psci_acquire_afflvl_locks+0x34>  // b.tcont
   4707c:	a94153f3 	ldp	x19, x20, [sp, #16]
   47080:	f94013f5 	ldr	x21, [sp, #32]
   47084:	a8c37bfd 	ldp	x29, x30, [sp], #48
   47088:	d65f03c0 	ret
   4708c:	f8737aa0 	ldr	x0, [x21, x19, lsl #3]
   47090:	b4000060 	cbz	x0, 4709c <psci_acquire_afflvl_locks+0x44>
   47094:	91003000 	add	x0, x0, #0xc
   47098:	97fffb88 	bl	45eb8 <bakery_lock_get>
   4709c:	91000673 	add	x19, x19, #0x1
   470a0:	17fffff5 	b	47074 <psci_acquire_afflvl_locks+0x1c>

00000000000470a4 <psci_release_afflvl_locks>:
   470a4:	a9bd7bfd 	stp	x29, x30, [sp, #-48]!
   470a8:	910003fd 	mov	x29, sp
   470ac:	a90153f3 	stp	x19, x20, [sp, #16]
   470b0:	2a0003f4 	mov	w20, w0
   470b4:	f90013f5 	str	x21, [sp, #32]
   470b8:	93407c33 	sxtw	x19, w1
   470bc:	aa0203f5 	mov	x21, x2
   470c0:	6b13029f 	cmp	w20, w19
   470c4:	540000ad 	b.le	470d8 <psci_release_afflvl_locks+0x34>
   470c8:	a94153f3 	ldp	x19, x20, [sp, #16]
   470cc:	f94013f5 	ldr	x21, [sp, #32]
   470d0:	a8c37bfd 	ldp	x29, x30, [sp], #48
   470d4:	d65f03c0 	ret
   470d8:	f8737aa0 	ldr	x0, [x21, x19, lsl #3]
   470dc:	b4000060 	cbz	x0, 470e8 <psci_release_afflvl_locks+0x44>
   470e0:	91003000 	add	x0, x0, #0xc
   470e4:	97fffbc0 	bl	45fe4 <bakery_lock_release>
   470e8:	d1000673 	sub	x19, x19, #0x1
   470ec:	17fffff5 	b	470c0 <psci_release_afflvl_locks+0x1c>

00000000000470f0 <psci_validate_mpidr>:
   470f0:	a9bf7bfd 	stp	x29, x30, [sp, #-16]!
   470f4:	910003fd 	mov	x29, sp
   470f8:	9400026b 	bl	47aa4 <psci_get_aff_map_node>
   470fc:	b40000e0 	cbz	x0, 47118 <psci_validate_mpidr+0x28>
   47100:	39402800 	ldrb	w0, [x0, #10]
   47104:	f240001f 	tst	x0, #0x1
   47108:	12800020 	mov	w0, #0xfffffffe            	// #-2
   4710c:	1a9f0000 	csel	w0, w0, wzr, eq  // eq = none
   47110:	a8c17bfd 	ldp	x29, x30, [sp], #16
   47114:	d65f03c0 	ret
   47118:	12800020 	mov	w0, #0xfffffffe            	// #-2
   4711c:	17fffffd 	b	47110 <psci_validate_mpidr+0x20>

0000000000047120 <psci_save_ns_entry>:
   47120:	a9b67bfd 	stp	x29, x30, [sp, #-160]!
   47124:	910003fd 	mov	x29, sp
   47128:	a90153f3 	stp	x19, x20, [sp, #16]
   4712c:	aa0103f3 	mov	x19, x1
   47130:	a9025bf5 	stp	x21, x22, [sp, #32]
   47134:	2a0303f5 	mov	w21, w3
   47138:	a90363f7 	stp	x23, x24, [sp, #48]
   4713c:	12180076 	and	w22, w3, #0x100
   47140:	aa0003f7 	mov	x23, x0
   47144:	aa0203f8 	mov	x24, x2
   47148:	36400055 	tbz	w21, #8, 47150 <psci_save_ns_entry+0x30>
   4714c:	d53c1004 	mrs	x4, sctlr_el2
   47150:	12070094 	and	w20, w4, #0x2000000
   47154:	36c803a4 	tbz	w4, #25, 471c8 <psci_save_ns_entry+0xa8>
   47158:	52800034 	mov	w20, #0x1                   	// #1
   4715c:	52800060 	mov	w0, #0x3                   	// #3
   47160:	52802021 	mov	w1, #0x101                 	// #257
   47164:	d2800802 	mov	x2, #0x40                  	// #64
   47168:	72a00b01 	movk	w1, #0x58, lsl #16
   4716c:	290903a1 	stp	w1, w0, [x29, #72]
   47170:	f9002bb3 	str	x19, [x29, #80]
   47174:	52800001 	mov	w1, #0x0                   	// #0
   47178:	910183a0 	add	x0, x29, #0x60
   4717c:	940003e5 	bl	48110 <memset>
   47180:	f90033b8 	str	x24, [x29, #96]
   47184:	36500275 	tbz	w21, #10, 471d0 <psci_save_ns_entry+0xb0>
   47188:	370003b3 	tbnz	w19, #0, 471fc <psci_save_ns_entry+0xdc>
   4718c:	710002df 	cmp	w22, #0x0
   47190:	52807821 	mov	w1, #0x3c1                 	// #961
   47194:	1a9f07e0 	cset	w0, ne  // ne = any
   47198:	11000400 	add	w0, w0, #0x1
   4719c:	2a000820 	orr	w0, w1, w0, lsl #2
   471a0:	b9005ba0 	str	w0, [x29, #88]
   471a4:	aa1703e0 	mov	x0, x23
   471a8:	910123a1 	add	x1, x29, #0x48
   471ac:	97fffa3c 	bl	45a9c <cm_init_context>
   471b0:	52800000 	mov	w0, #0x0                   	// #0
   471b4:	a94153f3 	ldp	x19, x20, [sp, #16]
   471b8:	a9425bf5 	ldp	x21, x22, [sp, #32]
   471bc:	a94363f7 	ldp	x23, x24, [sp, #48]
   471c0:	a8ca7bfd 	ldp	x29, x30, [sp], #160
   471c4:	d65f03c0 	ret
   471c8:	52800020 	mov	w0, #0x1                   	// #1
   471cc:	17ffffe5 	b	47160 <psci_save_ns_entry+0x40>
   471d0:	710002df 	cmp	w22, #0x0
   471d4:	52800061 	mov	w1, #0x3                   	// #3
   471d8:	52800140 	mov	w0, #0xa                   	// #10
   471dc:	531b0273 	ubfiz	w19, w19, #5, #1
   471e0:	1a811000 	csel	w0, w0, w1, ne  // ne = any
   471e4:	52803a01 	mov	w1, #0x1d0                 	// #464
   471e8:	2a142414 	orr	w20, w0, w20, lsl #9
   471ec:	2a010273 	orr	w19, w19, w1
   471f0:	2a140273 	orr	w19, w19, w20
   471f4:	b9005bb3 	str	w19, [x29, #88]
   471f8:	17ffffeb 	b	471a4 <psci_save_ns_entry+0x84>
   471fc:	12800020 	mov	w0, #0xfffffffe            	// #-2
   47200:	17ffffed 	b	471b4 <psci_save_ns_entry+0x94>

0000000000047204 <psci_get_state>:
   47204:	39402c01 	ldrb	w1, [x0, #11]
   47208:	7100083f 	cmp	w1, #0x2
   4720c:	54000169 	b.ls	47238 <psci_get_state+0x34>  // b.plast
   47210:	a9bf7bfd 	stp	x29, x30, [sp, #-16]!
   47214:	f0000003 	adrp	x3, 4a000 <__func__.2258+0x12>
   47218:	f0000001 	adrp	x1, 4a000 <__func__.2258+0x12>
   4721c:	f0000000 	adrp	x0, 4a000 <__func__.2258+0x12>
   47220:	910003fd 	mov	x29, sp
   47224:	910c8c63 	add	x3, x3, #0x323
   47228:	52802c22 	mov	w2, #0x161                 	// #353
   4722c:	910a8c21 	add	x1, x1, #0x2a3
   47230:	9108c400 	add	x0, x0, #0x231
   47234:	940003b0 	bl	480f4 <__assert>
   47238:	35000081 	cbnz	w1, 47248 <psci_get_state+0x44>
   4723c:	39402800 	ldrb	w0, [x0, #10]
   47240:	53017c00 	lsr	w0, w0, #1
   47244:	d65f03c0 	ret
   47248:	79401000 	ldrh	w0, [x0, #8]
   4724c:	7100001f 	cmp	w0, #0x0
   47250:	1a9f17e0 	cset	w0, eq  // eq = none
   47254:	d65f03c0 	ret

0000000000047258 <get_power_on_target_afflvl>:
   47258:	a9bf7bfd 	stp	x29, x30, [sp, #-16]!
   4725c:	910003fd 	mov	x29, sp
   47260:	d53800a0 	mrs	x0, mpidr_el1
   47264:	92409c00 	and	x0, x0, #0xffffffffff
   47268:	52800001 	mov	w1, #0x0                   	// #0
   4726c:	9260dc00 	and	x0, x0, #0xffffffff00ffffff
   47270:	9400020d 	bl	47aa4 <psci_get_aff_map_node>
   47274:	b5000120 	cbnz	x0, 47298 <get_power_on_target_afflvl+0x40>
   47278:	f0000003 	adrp	x3, 4a000 <__func__.2258+0x12>
   4727c:	910b1c63 	add	x3, x3, #0x2c7
   47280:	52801122 	mov	w2, #0x89                  	// #137
   47284:	f0000001 	adrp	x1, 4a000 <__func__.2258+0x12>
   47288:	f0000000 	adrp	x0, 4a000 <__func__.2258+0x12>
   4728c:	910a8c21 	add	x1, x1, #0x2a3
   47290:	9107d000 	add	x0, x0, #0x1f4
   47294:	94000398 	bl	480f4 <__assert>
   47298:	97ffffdb 	bl	47204 <psci_get_state>
   4729c:	12003c00 	and	w0, w0, #0xffff
   472a0:	51000800 	sub	w0, w0, #0x2
   472a4:	7100041f 	cmp	w0, #0x1
   472a8:	540000a9 	b.ls	472bc <get_power_on_target_afflvl+0x64>  // b.plast
   472ac:	f0000003 	adrp	x3, 4a000 <__func__.2258+0x12>
   472b0:	52801202 	mov	w2, #0x90                  	// #144
   472b4:	910b3063 	add	x3, x3, #0x2cc
   472b8:	17fffff3 	b	47284 <get_power_on_target_afflvl+0x2c>
   472bc:	97fffe8f 	bl	46cf8 <psci_get_suspend_afflvl>
   472c0:	3100041f 	cmn	w0, #0x1
   472c4:	54000061 	b.ne	472d0 <get_power_on_target_afflvl+0x78>  // b.any
   472c8:	a8c17bfd 	ldp	x29, x30, [sp], #16
   472cc:	17ffff2f 	b	46f88 <get_max_afflvl>
   472d0:	a8c17bfd 	ldp	x29, x30, [sp], #16
   472d4:	d65f03c0 	ret

00000000000472d8 <psci_set_state>:
   472d8:	a9bf7bfd 	stp	x29, x30, [sp, #-16]!
   472dc:	910003fd 	mov	x29, sp
   472e0:	39402c02 	ldrb	w2, [x0, #11]
   472e4:	7100085f 	cmp	w2, #0x2
   472e8:	54000129 	b.ls	4730c <psci_set_state+0x34>  // b.plast
   472ec:	f0000003 	adrp	x3, 4a000 <__func__.2258+0x12>
   472f0:	910c8c63 	add	x3, x3, #0x323
   472f4:	52802f82 	mov	w2, #0x17c                 	// #380
   472f8:	f0000001 	adrp	x1, 4a000 <__func__.2258+0x12>
   472fc:	f0000000 	adrp	x0, 4a000 <__func__.2258+0x12>
   47300:	910a8c21 	add	x1, x1, #0x2a3
   47304:	91090000 	add	x0, x0, #0x240
   47308:	9400037b 	bl	480f4 <__assert>
   4730c:	12003c21 	and	w1, w1, #0xffff
   47310:	340002a2 	cbz	w2, 47364 <psci_set_state+0x8c>
   47314:	71000c3f 	cmp	w1, #0x3
   47318:	540001e8 	b.hi	47354 <psci_set_state+0x7c>  // b.pmore
   4731c:	f0000002 	adrp	x2, 4a000 <__func__.2258+0x12>
   47320:	9107c042 	add	x2, x2, #0x1f0
   47324:	38614841 	ldrb	w1, [x2, w1, uxtw]
   47328:	10000062 	adr	x2, 47334 <psci_set_state+0x5c>
   4732c:	8b218841 	add	x1, x2, w1, sxtb #2
   47330:	d61f0020 	br	x1
   47334:	79401001 	ldrh	w1, [x0, #8]
   47338:	11000421 	add	w1, w1, #0x1
   4733c:	79001001 	strh	w1, [x0, #8]
   47340:	a8c17bfd 	ldp	x29, x30, [sp], #16
   47344:	d65f03c0 	ret
   47348:	79401001 	ldrh	w1, [x0, #8]
   4734c:	51000421 	sub	w1, w1, #0x1
   47350:	17fffffb 	b	4733c <psci_set_state+0x64>
   47354:	f0000003 	adrp	x3, 4a000 <__func__.2258+0x12>
   47358:	52803282 	mov	w2, #0x194                 	// #404
   4735c:	911b8863 	add	x3, x3, #0x6e2
   47360:	17ffffe6 	b	472f8 <psci_set_state+0x20>
   47364:	39402802 	ldrb	w2, [x0, #10]
   47368:	12000042 	and	w2, w2, #0x1
   4736c:	2a010441 	orr	w1, w2, w1, lsl #1
   47370:	39002801 	strb	w1, [x0, #10]
   47374:	17fffff3 	b	47340 <psci_set_state+0x68>

0000000000047378 <psci_do_afflvl_state_mgmt>:
   47378:	a9bd7bfd 	stp	x29, x30, [sp, #-48]!
   4737c:	910003fd 	mov	x29, sp
   47380:	a90153f3 	stp	x19, x20, [sp, #16]
   47384:	2a0003f3 	mov	w19, w0
   47388:	a9025bf5 	stp	x21, x22, [sp, #32]
   4738c:	2a0103f4 	mov	w20, w1
   47390:	aa0203f5 	mov	x21, x2
   47394:	2a0303f6 	mov	w22, w3
   47398:	6b14027f 	cmp	w19, w20
   4739c:	540000a9 	b.ls	473b0 <psci_do_afflvl_state_mgmt+0x38>  // b.plast
   473a0:	a94153f3 	ldp	x19, x20, [sp, #16]
   473a4:	a9425bf5 	ldp	x21, x22, [sp, #32]
   473a8:	a8c37bfd 	ldp	x29, x30, [sp], #48
   473ac:	d65f03c0 	ret
   473b0:	f8735aa0 	ldr	x0, [x21, w19, uxtw #3]
   473b4:	b4000060 	cbz	x0, 473c0 <psci_do_afflvl_state_mgmt+0x48>
   473b8:	2a1603e1 	mov	w1, w22
   473bc:	97ffffc7 	bl	472d8 <psci_set_state>
   473c0:	11000673 	add	w19, w19, #0x1
   473c4:	17fffff5 	b	47398 <psci_do_afflvl_state_mgmt+0x20>

00000000000473c8 <psci_get_phys_state>:
   473c8:	a9bf7bfd 	stp	x29, x30, [sp, #-16]!
   473cc:	910003fd 	mov	x29, sp
   473d0:	97ffff8d 	bl	47204 <psci_get_state>
   473d4:	72003c1f 	tst	w0, #0xffff
   473d8:	1a9f07e0 	cset	w0, ne  // ne = any
   473dc:	a8c17bfd 	ldp	x29, x30, [sp], #16
   473e0:	d65f03c0 	ret

00000000000473e4 <psci_find_max_phys_off_afflvl>:
   473e4:	a9bd7bfd 	stp	x29, x30, [sp, #-48]!
   473e8:	910003fd 	mov	x29, sp
   473ec:	a90153f3 	stp	x19, x20, [sp, #16]
   473f0:	2a0003f3 	mov	w19, w0
   473f4:	a9025bf5 	stp	x21, x22, [sp, #32]
   473f8:	2a0103f5 	mov	w21, w1
   473fc:	aa0203f6 	mov	x22, x2
   47400:	12800014 	mov	w20, #0xffffffff            	// #-1
   47404:	6b15027f 	cmp	w19, w21
   47408:	540000c9 	b.ls	47420 <psci_find_max_phys_off_afflvl+0x3c>  // b.plast
   4740c:	2a1403e0 	mov	w0, w20
   47410:	a94153f3 	ldp	x19, x20, [sp, #16]
   47414:	a9425bf5 	ldp	x21, x22, [sp, #32]
   47418:	a8c37bfd 	ldp	x29, x30, [sp], #48
   4741c:	d65f03c0 	ret
   47420:	f8735ac0 	ldr	x0, [x22, w19, uxtw #3]
   47424:	b40000a0 	cbz	x0, 47438 <psci_find_max_phys_off_afflvl+0x54>
   47428:	97ffffe8 	bl	473c8 <psci_get_phys_state>
   4742c:	12003c00 	and	w0, w0, #0xffff
   47430:	7100041f 	cmp	w0, #0x1
   47434:	1a931294 	csel	w20, w20, w19, ne  // ne = any
   47438:	11000673 	add	w19, w19, #0x1
   4743c:	17fffff2 	b	47404 <psci_find_max_phys_off_afflvl+0x20>

0000000000047440 <psci_afflvl_power_on_finish>:
   47440:	a9ba7bfd 	stp	x29, x30, [sp, #-96]!
   47444:	910003fd 	mov	x29, sp
   47448:	a90153f3 	stp	x19, x20, [sp, #16]
   4744c:	2a0003f3 	mov	w19, w0
   47450:	a9025bf5 	stp	x21, x22, [sp, #32]
   47454:	2a0103f4 	mov	w20, w1
   47458:	f9001bf7 	str	x23, [sp, #48]
   4745c:	aa0203f7 	mov	x23, x2
   47460:	d53800a0 	mrs	x0, mpidr_el1
   47464:	910123b5 	add	x21, x29, #0x48
   47468:	92409c00 	and	x0, x0, #0xffffffffff
   4746c:	2a0103e2 	mov	w2, w1
   47470:	aa1503e3 	mov	x3, x21
   47474:	2a1303e1 	mov	w1, w19
   47478:	9260dc00 	and	x0, x0, #0xffffffff00ffffff
   4747c:	940001b0 	bl	47b3c <psci_get_aff_map_nodes>
   47480:	34000040 	cbz	w0, 47488 <psci_afflvl_power_on_finish+0x48>
   47484:	940006ec 	bl	49034 <do_panic>
   47488:	aa1503e2 	mov	x2, x21
   4748c:	2a1403e1 	mov	w1, w20
   47490:	2a1303e0 	mov	w0, w19
   47494:	97fffef1 	bl	47058 <psci_acquire_afflvl_locks>
   47498:	aa1503e2 	mov	x2, x21
   4749c:	2a1403e1 	mov	w1, w20
   474a0:	2a1303e0 	mov	w0, w19
   474a4:	97ffffd0 	bl	473e4 <psci_find_max_phys_off_afflvl>
   474a8:	3100041f 	cmn	w0, #0x1
   474ac:	54000121 	b.ne	474d0 <psci_afflvl_power_on_finish+0x90>  // b.any
   474b0:	d0000003 	adrp	x3, 49000 <asm_print_str+0x14>
   474b4:	f0000001 	adrp	x1, 4a000 <__func__.2258+0x12>
   474b8:	f0000000 	adrp	x0, 4a000 <__func__.2258+0x12>
   474bc:	9119d063 	add	x3, x3, #0x674
   474c0:	52803f82 	mov	w2, #0x1fc                 	// #508
   474c4:	910a8c21 	add	x1, x1, #0x2a3
   474c8:	91093c00 	add	x0, x0, #0x24f
   474cc:	9400030a 	bl	480f4 <__assert>
   474d0:	97fffe9e 	bl	46f48 <psci_set_max_phys_off_afflvl>
   474d4:	93407e96 	sxtw	x22, w20
   474d8:	12800021 	mov	w1, #0xfffffffe            	// #-2
   474dc:	6b16027f 	cmp	w19, w22
   474e0:	5400024d 	b.le	47528 <psci_afflvl_power_on_finish+0xe8>
   474e4:	35fffd01 	cbnz	w1, 47484 <psci_afflvl_power_on_finish+0x44>
   474e8:	aa1503e2 	mov	x2, x21
   474ec:	2a1403e1 	mov	w1, w20
   474f0:	52800003 	mov	w3, #0x0                   	// #0
   474f4:	2a1303e0 	mov	w0, w19
   474f8:	97ffffa0 	bl	47378 <psci_do_afflvl_state_mgmt>
   474fc:	12800000 	mov	w0, #0xffffffff            	// #-1
   47500:	97fffe92 	bl	46f48 <psci_set_max_phys_off_afflvl>
   47504:	aa1503e2 	mov	x2, x21
   47508:	2a1403e1 	mov	w1, w20
   4750c:	2a1303e0 	mov	w0, w19
   47510:	97fffee5 	bl	470a4 <psci_release_afflvl_locks>
   47514:	a94153f3 	ldp	x19, x20, [sp, #16]
   47518:	a9425bf5 	ldp	x21, x22, [sp, #32]
   4751c:	f9401bf7 	ldr	x23, [sp, #48]
   47520:	a8c67bfd 	ldp	x29, x30, [sp], #96
   47524:	d65f03c0 	ret
   47528:	f8767aa0 	ldr	x0, [x21, x22, lsl #3]
   4752c:	b40000a0 	cbz	x0, 47540 <psci_afflvl_power_on_finish+0x100>
   47530:	f8767ae1 	ldr	x1, [x23, x22, lsl #3]
   47534:	d63f0020 	blr	x1
   47538:	35fffa60 	cbnz	w0, 47484 <psci_afflvl_power_on_finish+0x44>
   4753c:	52800001 	mov	w1, #0x0                   	// #0
   47540:	d10006d6 	sub	x22, x22, #0x1
   47544:	17ffffe6 	b	474dc <psci_afflvl_power_on_finish+0x9c>

0000000000047548 <psci_print_affinity_map>:
   47548:	a9bd7bfd 	stp	x29, x30, [sp, #-48]!
   4754c:	f0000000 	adrp	x0, 4a000 <__func__.2258+0x12>
   47550:	910d8c00 	add	x0, x0, #0x363
   47554:	910003fd 	mov	x29, sp
   47558:	a90153f3 	stp	x19, x20, [sp, #16]
   4755c:	f0000053 	adrp	x19, 52000 <plat_console_lock>
   47560:	91006273 	add	x19, x19, #0x18
   47564:	a9025bf5 	stp	x21, x22, [sp, #32]
   47568:	f0000014 	adrp	x20, 4a000 <__func__.2258+0x12>
   4756c:	f0000015 	adrp	x21, 4a000 <__func__.2258+0x12>
   47570:	91032276 	add	x22, x19, #0xc8
   47574:	910ee294 	add	x20, x20, #0x3b8
   47578:	910e02b5 	add	x21, x21, #0x380
   4757c:	9400022a 	bl	47e24 <tf_printf>
   47580:	39402a60 	ldrb	w0, [x19, #10]
   47584:	36000120 	tbz	w0, #0, 475a8 <psci_print_affinity_map+0x60>
   47588:	aa1303e0 	mov	x0, x19
   4758c:	97ffff1e 	bl	47204 <psci_get_state>
   47590:	92403c00 	and	x0, x0, #0xffff
   47594:	39402e61 	ldrb	w1, [x19, #11]
   47598:	f9400262 	ldr	x2, [x19]
   4759c:	f8607a83 	ldr	x3, [x20, x0, lsl #3]
   475a0:	aa1503e0 	mov	x0, x21
   475a4:	94000220 	bl	47e24 <tf_printf>
   475a8:	9100a273 	add	x19, x19, #0x28
   475ac:	eb16027f 	cmp	x19, x22
   475b0:	54fffe81 	b.ne	47580 <psci_print_affinity_map+0x38>  // b.any
   475b4:	a94153f3 	ldp	x19, x20, [sp, #16]
   475b8:	a9425bf5 	ldp	x21, x22, [sp, #32]
   475bc:	a8c37bfd 	ldp	x29, x30, [sp], #48
   475c0:	d65f03c0 	ret

00000000000475c4 <psci_cpu_on>:
   475c4:	a9bd7bfd 	stp	x29, x30, [sp, #-48]!
   475c8:	910003fd 	mov	x29, sp
   475cc:	a90153f3 	stp	x19, x20, [sp, #16]
   475d0:	aa0103f4 	mov	x20, x1
   475d4:	f90013f5 	str	x21, [sp, #32]
   475d8:	aa0003f3 	mov	x19, x0
   475dc:	52800001 	mov	w1, #0x0                   	// #0
   475e0:	aa0203f5 	mov	x21, x2
   475e4:	97fffec3 	bl	470f0 <psci_validate_mpidr>
   475e8:	35000160 	cbnz	w0, 47614 <psci_cpu_on+0x50>
   475ec:	97fffe67 	bl	46f88 <get_max_afflvl>
   475f0:	2a0003e4 	mov	w4, w0
   475f4:	aa1503e2 	mov	x2, x21
   475f8:	aa1403e1 	mov	x1, x20
   475fc:	aa1303e0 	mov	x0, x19
   47600:	f94013f5 	ldr	x21, [sp, #32]
   47604:	a94153f3 	ldp	x19, x20, [sp, #16]
   47608:	52800003 	mov	w3, #0x0                   	// #0
   4760c:	a8c37bfd 	ldp	x29, x30, [sp], #48
   47610:	17fffc9e 	b	46888 <psci_afflvl_on>
   47614:	a94153f3 	ldp	x19, x20, [sp, #16]
   47618:	f94013f5 	ldr	x21, [sp, #32]
   4761c:	a8c37bfd 	ldp	x29, x30, [sp], #48
   47620:	d65f03c0 	ret

0000000000047624 <psci_cpu_suspend>:
   47624:	aa0103e5 	mov	x5, x1
   47628:	52bf9fc1 	mov	w1, #0xfcfe0000            	// #-50462720
   4762c:	6a01001f 	tst	w0, w1
   47630:	54000621 	b.ne	476f4 <psci_cpu_suspend+0xd0>  // b.any
   47634:	53187c04 	lsr	w4, w0, #24
   47638:	71000c9f 	cmp	w4, #0x3
   4763c:	540005c0 	b.eq	476f4 <psci_cpu_suspend+0xd0>  // b.none
   47640:	a9bf7bfd 	stp	x29, x30, [sp, #-16]!
   47644:	aa0203e1 	mov	x1, x2
   47648:	2a0003e2 	mov	w2, w0
   4764c:	910003fd 	mov	x29, sp
   47650:	37800222 	tbnz	w2, #16, 47694 <psci_cpu_suspend+0x70>
   47654:	d0000021 	adrp	x1, 4d000 <__STACKS_START__+0xfc0>
   47658:	f9474021 	ldr	x1, [x1, #3712]
   4765c:	f9400021 	ldr	x1, [x1]
   47660:	b4000441 	cbz	x1, 476e8 <psci_cpu_suspend+0xc4>
   47664:	d63f0020 	blr	x1
   47668:	7100001f 	cmp	w0, #0x0
   4766c:	3a421804 	ccmn	w0, #0x2, #0x4, ne  // ne = any
   47670:	540003e0 	b.eq	476ec <psci_cpu_suspend+0xc8>  // b.none
   47674:	f0000003 	adrp	x3, 4a000 <__func__.2258+0x12>
   47678:	f0000001 	adrp	x1, 4a000 <__func__.2258+0x12>
   4767c:	f0000000 	adrp	x0, 4a000 <__func__.2258+0x12>
   47680:	91108463 	add	x3, x3, #0x421
   47684:	52800d02 	mov	w2, #0x68                  	// #104
   47688:	91115421 	add	x1, x1, #0x455
   4768c:	910fbc00 	add	x0, x0, #0x3ef
   47690:	94000299 	bl	480f4 <__assert>
   47694:	52800003 	mov	w3, #0x0                   	// #0
   47698:	aa0503e0 	mov	x0, x5
   4769c:	97fffddd 	bl	46e10 <psci_afflvl_suspend>
   476a0:	35000100 	cbnz	w0, 476c0 <psci_cpu_suspend+0x9c>
   476a4:	d0000020 	adrp	x0, 4d000 <__STACKS_START__+0xfc0>
   476a8:	f9474000 	ldr	x0, [x0, #3712]
   476ac:	f9401801 	ldr	x1, [x0, #48]
   476b0:	b4000061 	cbz	x1, 476bc <psci_cpu_suspend+0x98>
   476b4:	d53800a0 	mrs	x0, mpidr_el1
   476b8:	d63f0020 	blr	x1
   476bc:	94000608 	bl	48edc <psci_power_down_wfi>
   476c0:	3100081f 	cmn	w0, #0x2
   476c4:	54000120 	b.eq	476e8 <psci_cpu_suspend+0xc4>  // b.none
   476c8:	f0000003 	adrp	x3, 4a000 <__func__.2258+0x12>
   476cc:	f0000001 	adrp	x1, 4a000 <__func__.2258+0x12>
   476d0:	f0000000 	adrp	x0, 4a000 <__func__.2258+0x12>
   476d4:	9111dc63 	add	x3, x3, #0x477
   476d8:	528010c2 	mov	w2, #0x86                  	// #134
   476dc:	91115421 	add	x1, x1, #0x455
   476e0:	910fbc00 	add	x0, x0, #0x3ef
   476e4:	94000284 	bl	480f4 <__assert>
   476e8:	12800020 	mov	w0, #0xfffffffe            	// #-2
   476ec:	a8c17bfd 	ldp	x29, x30, [sp], #16
   476f0:	d65f03c0 	ret
   476f4:	12800020 	mov	w0, #0xfffffffe            	// #-2
   476f8:	d65f03c0 	ret

00000000000476fc <psci_cpu_off>:
   476fc:	a9bf7bfd 	stp	x29, x30, [sp, #-16]!
   47700:	910003fd 	mov	x29, sp
   47704:	97fffe21 	bl	46f88 <get_max_afflvl>
   47708:	2a0003e1 	mov	w1, w0
   4770c:	52800000 	mov	w0, #0x0                   	// #0
   47710:	97fffb01 	bl	46314 <psci_afflvl_off>
   47714:	35000100 	cbnz	w0, 47734 <psci_cpu_off+0x38>
   47718:	d0000020 	adrp	x0, 4d000 <__STACKS_START__+0xfc0>
   4771c:	f9474000 	ldr	x0, [x0, #3712]
   47720:	f9401801 	ldr	x1, [x0, #48]
   47724:	b4000061 	cbz	x1, 47730 <psci_cpu_off+0x34>
   47728:	d53800a0 	mrs	x0, mpidr_el1
   4772c:	d63f0020 	blr	x1
   47730:	940005eb 	bl	48edc <psci_power_down_wfi>
   47734:	31000c1f 	cmn	w0, #0x3
   47738:	54000120 	b.eq	4775c <psci_cpu_off+0x60>  // b.none
   4773c:	f0000003 	adrp	x3, 4a000 <__func__.2258+0x12>
   47740:	f0000001 	adrp	x1, 4a000 <__func__.2258+0x12>
   47744:	f0000000 	adrp	x0, 4a000 <__func__.2258+0x12>
   47748:	91103463 	add	x3, x3, #0x40d
   4774c:	528015e2 	mov	w2, #0xaf                  	// #175
   47750:	91115421 	add	x1, x1, #0x455
   47754:	91100000 	add	x0, x0, #0x400
   47758:	94000267 	bl	480f4 <__assert>
   4775c:	a8c17bfd 	ldp	x29, x30, [sp], #16
   47760:	d65f03c0 	ret

0000000000047764 <psci_affinity_info>:
   47764:	a9be7bfd 	stp	x29, x30, [sp, #-32]!
   47768:	910003fd 	mov	x29, sp
   4776c:	a90153f3 	stp	x19, x20, [sp, #16]
   47770:	2a0103f3 	mov	w19, w1
   47774:	aa0003f4 	mov	x20, x0
   47778:	97fffe04 	bl	46f88 <get_max_afflvl>
   4777c:	6b13001f 	cmp	w0, w19
   47780:	540000a2 	b.cs	47794 <psci_affinity_info+0x30>  // b.hs, b.nlast
   47784:	12800020 	mov	w0, #0xfffffffe            	// #-2
   47788:	a94153f3 	ldp	x19, x20, [sp, #16]
   4778c:	a8c27bfd 	ldp	x29, x30, [sp], #32
   47790:	d65f03c0 	ret
   47794:	2a1303e1 	mov	w1, w19
   47798:	aa1403e0 	mov	x0, x20
   4779c:	940000c2 	bl	47aa4 <psci_get_aff_map_node>
   477a0:	b4ffff20 	cbz	x0, 47784 <psci_affinity_info+0x20>
   477a4:	39402801 	ldrb	w1, [x0, #10]
   477a8:	3607fee1 	tbz	w1, #0, 47784 <psci_affinity_info+0x20>
   477ac:	97fffe96 	bl	47204 <psci_get_state>
   477b0:	12003c00 	and	w0, w0, #0xffff
   477b4:	71000c1f 	cmp	w0, #0x3
   477b8:	1a9f1000 	csel	w0, w0, wzr, ne  // ne = any
   477bc:	17fffff3 	b	47788 <psci_affinity_info+0x24>

00000000000477c0 <psci_smc_handler>:
   477c0:	a9be7bfd 	stp	x29, x30, [sp, #-32]!
   477c4:	910003fd 	mov	x29, sp
   477c8:	f9000bf3 	str	x19, [sp, #16]
   477cc:	aa0603f3 	mov	x19, x6
   477d0:	37000067 	tbnz	w7, #0, 477dc <psci_smc_handler+0x1c>
   477d4:	b2407fe0 	mov	x0, #0xffffffff            	// #4294967295
   477d8:	14000014 	b	47828 <psci_smc_handler+0x68>
   477dc:	2a0003e4 	mov	w4, w0
   477e0:	aa0103e0 	mov	x0, x1
   477e4:	aa0203e1 	mov	x1, x2
   477e8:	aa0303e2 	mov	x2, x3
   477ec:	37f00404 	tbnz	w4, #30, 4786c <psci_smc_handler+0xac>
   477f0:	92407c62 	and	x2, x3, #0xffffffff
   477f4:	52af8003 	mov	w3, #0x7c000000            	// #2080374784
   477f8:	0b030083 	add	w3, w4, w3
   477fc:	92407c05 	and	x5, x0, #0xffffffff
   47800:	92407c26 	and	x6, x1, #0xffffffff
   47804:	7100247f 	cmp	w3, #0x9
   47808:	54000548 	b.hi	478b0 <psci_smc_handler+0xf0>  // b.pmore
   4780c:	f0000004 	adrp	x4, 4a000 <__func__.2258+0x12>
   47810:	910f7084 	add	x4, x4, #0x3dc
   47814:	38634883 	ldrb	w3, [x4, w3, uxtw]
   47818:	10000064 	adr	x4, 47824 <psci_smc_handler+0x64>
   4781c:	8b238883 	add	x3, x4, w3, sxtb #2
   47820:	d61f0060 	br	x3
   47824:	d2800040 	mov	x0, #0x2                   	// #2
   47828:	f9000260 	str	x0, [x19]
   4782c:	1400001d 	b	478a0 <psci_smc_handler+0xe0>
   47830:	97ffffb3 	bl	476fc <psci_cpu_off>
   47834:	93407c00 	sxtw	x0, w0
   47838:	17fffffc 	b	47828 <psci_smc_handler+0x68>
   4783c:	aa0603e1 	mov	x1, x6
   47840:	97ffff79 	bl	47624 <psci_cpu_suspend>
   47844:	17fffffc 	b	47834 <psci_smc_handler+0x74>
   47848:	aa0603e1 	mov	x1, x6
   4784c:	aa0503e0 	mov	x0, x5
   47850:	97ffff5d 	bl	475c4 <psci_cpu_on>
   47854:	17fffff8 	b	47834 <psci_smc_handler+0x74>
   47858:	aa0503e0 	mov	x0, x5
   4785c:	97ffffc2 	bl	47764 <psci_affinity_info>
   47860:	17fffff5 	b	47834 <psci_smc_handler+0x74>
   47864:	94000127 	bl	47d00 <psci_system_off>
   47868:	9400013c 	bl	47d58 <psci_system_reset>
   4786c:	12b88003 	mov	w3, #0x3bffffff            	// #1006632959
   47870:	0b030083 	add	w3, w4, w3
   47874:	7100187f 	cmp	w3, #0x6
   47878:	540001c8 	b.hi	478b0 <psci_smc_handler+0xf0>  // b.pmore
   4787c:	f0000005 	adrp	x5, 4a000 <__func__.2258+0x12>
   47880:	910fa0a5 	add	x5, x5, #0x3e8
   47884:	386348a3 	ldrb	w3, [x5, w3, uxtw]
   47888:	10000065 	adr	x5, 47894 <psci_smc_handler+0xd4>
   4788c:	8b2388a3 	add	x3, x5, w3, sxtb #2
   47890:	d61f0060 	br	x3
   47894:	92800000 	mov	x0, #0xffffffffffffffff    	// #-1
   47898:	17ffffe4 	b	47828 <psci_smc_handler+0x68>
   4789c:	f900027f 	str	xzr, [x19]
   478a0:	aa1303e0 	mov	x0, x19
   478a4:	f9400bf3 	ldr	x19, [sp, #16]
   478a8:	a8c27bfd 	ldp	x29, x30, [sp], #32
   478ac:	d65f03c0 	ret
   478b0:	2a0403e1 	mov	w1, w4
   478b4:	f0000000 	adrp	x0, 4a000 <__func__.2258+0x12>
   478b8:	91124c00 	add	x0, x0, #0x493
   478bc:	9400015a 	bl	47e24 <tf_printf>
   478c0:	17ffffc5 	b	477d4 <psci_smc_handler+0x14>

00000000000478c4 <psci_init_aff_map>:
   478c4:	a9ba7bfd 	stp	x29, x30, [sp, #-96]!
   478c8:	6b03005f 	cmp	w2, w3
   478cc:	910003fd 	mov	x29, sp
   478d0:	a90153f3 	stp	x19, x20, [sp, #16]
   478d4:	a9025bf5 	stp	x21, x22, [sp, #32]
   478d8:	a90363f7 	stp	x23, x24, [sp, #48]
   478dc:	a9046bf9 	stp	x25, x26, [sp, #64]
   478e0:	a90573fb 	stp	x27, x28, [sp, #80]
   478e4:	5400012a 	b.ge	47908 <psci_init_aff_map+0x44>  // b.tcont
   478e8:	f0000003 	adrp	x3, 4a000 <__func__.2258+0x12>
   478ec:	9113c063 	add	x3, x3, #0x4f0
   478f0:	52801e82 	mov	w2, #0xf4                  	// #244
   478f4:	f0000001 	adrp	x1, 4a000 <__func__.2258+0x12>
   478f8:	f0000000 	adrp	x0, 4a000 <__func__.2258+0x12>
   478fc:	91142421 	add	x1, x1, #0x509
   47900:	91134c00 	add	x0, x0, #0x4d3
   47904:	940001fc 	bl	480f4 <__assert>
   47908:	aa0003f4 	mov	x20, x0
   4790c:	2a0103f7 	mov	w23, w1
   47910:	2a0203f3 	mov	w19, w2
   47914:	aa0003e1 	mov	x1, x0
   47918:	2a0303f6 	mov	w22, w3
   4791c:	2a0203e0 	mov	w0, w2
   47920:	97fff6f9 	bl	45504 <plat_get_aff_count>
   47924:	2a0003f9 	mov	w25, w0
   47928:	350000a0 	cbnz	w0, 4793c <psci_init_aff_map+0x78>
   4792c:	f0000003 	adrp	x3, 4a000 <__func__.2258+0x12>
   47930:	52801f82 	mov	w2, #0xfc                  	// #252
   47934:	9114b063 	add	x3, x3, #0x52c
   47938:	17ffffef 	b	478f4 <psci_init_aff_map+0x30>
   4793c:	6b16027f 	cmp	w19, w22
   47940:	54000a4d 	b.le	47a88 <psci_init_aff_map+0x1c4>
   47944:	51000678 	sub	w24, w19, #0x1
   47948:	52800015 	mov	w21, #0x0                   	// #0
   4794c:	2a1503e1 	mov	w1, w21
   47950:	2a1303e2 	mov	w2, w19
   47954:	aa1403e0 	mov	x0, x20
   47958:	97fffd9b 	bl	46fc4 <mpidr_set_aff_inst>
   4795c:	2a1703e1 	mov	w1, w23
   47960:	aa0003f4 	mov	x20, x0
   47964:	2a1603e3 	mov	w3, w22
   47968:	2a1803e2 	mov	w2, w24
   4796c:	110006b5 	add	w21, w21, #0x1
   47970:	97ffffd5 	bl	478c4 <psci_init_aff_map>
   47974:	6b15033f 	cmp	w25, w21
   47978:	2a0003f7 	mov	w23, w0
   4797c:	54fffe81 	b.ne	4794c <psci_init_aff_map+0x88>  // b.any
   47980:	2a1703e0 	mov	w0, w23
   47984:	a94153f3 	ldp	x19, x20, [sp, #16]
   47988:	a9425bf5 	ldp	x21, x22, [sp, #32]
   4798c:	a94363f7 	ldp	x23, x24, [sp, #48]
   47990:	a9446bf9 	ldp	x25, x26, [sp, #64]
   47994:	a94573fb 	ldp	x27, x28, [sp, #80]
   47998:	a8c67bfd 	ldp	x29, x30, [sp], #96
   4799c:	d65f03c0 	ret
   479a0:	2a1303e2 	mov	w2, w19
   479a4:	2a1803e1 	mov	w1, w24
   479a8:	aa1403e0 	mov	x0, x20
   479ac:	97fffd86 	bl	46fc4 <mpidr_set_aff_inst>
   479b0:	aa0003f4 	mov	x20, x0
   479b4:	2a1503e0 	mov	w0, w21
   479b8:	9bbb7eb5 	umull	x21, w21, w27
   479bc:	9b1b7c00 	mul	x0, x0, x27
   479c0:	8b0002dc 	add	x28, x22, x0
   479c4:	f8206ad4 	str	x20, [x22, x0]
   479c8:	910032a0 	add	x0, x21, #0xc
   479cc:	39002f93 	strb	w19, [x28, #11]
   479d0:	8b0002c0 	add	x0, x22, x0
   479d4:	97fff924 	bl	45e64 <bakery_lock_init>
   479d8:	aa1403e1 	mov	x1, x20
   479dc:	2a1303e0 	mov	w0, w19
   479e0:	97fff6cd 	bl	45514 <plat_get_aff_state>
   479e4:	39002b80 	strb	w0, [x28, #10]
   479e8:	350003b3 	cbnz	w19, 47a5c <psci_init_aff_map+0x198>
   479ec:	36000080 	tbz	w0, #0, 479fc <psci_init_aff_map+0x138>
   479f0:	52800021 	mov	w1, #0x1                   	// #1
   479f4:	8b1502c0 	add	x0, x22, x21
   479f8:	97fffe38 	bl	472d8 <psci_set_state>
   479fc:	aa1403e0 	mov	x0, x20
   47a00:	94000612 	bl	49248 <platform_get_core_pos>
   47a04:	2a0003f5 	mov	w21, w0
   47a08:	71000c1f 	cmp	w0, #0x3
   47a0c:	54000129 	b.ls	47a30 <psci_init_aff_map+0x16c>  // b.plast
   47a10:	f0000003 	adrp	x3, 4a000 <__func__.2258+0x12>
   47a14:	f0000001 	adrp	x1, 4a000 <__func__.2258+0x12>
   47a18:	f0000000 	adrp	x0, 4a000 <__func__.2258+0x12>
   47a1c:	9114d863 	add	x3, x3, #0x536
   47a20:	528018a2 	mov	w2, #0xc5                  	// #197
   47a24:	91142421 	add	x1, x1, #0x509
   47a28:	9112f000 	add	x0, x0, #0x4bc
   47a2c:	17ffffb6 	b	47904 <psci_init_aff_map+0x40>
   47a30:	940003d8 	bl	48990 <_cpu_data_by_index>
   47a34:	1280001c 	mov	w28, #0xffffffff            	// #-1
   47a38:	b900181c 	str	w28, [x0, #24]
   47a3c:	2a1503e0 	mov	w0, w21
   47a40:	940003d4 	bl	48990 <_cpu_data_by_index>
   47a44:	b9001c1c 	str	w28, [x0, #28]
   47a48:	52804201 	mov	w1, #0x210                 	// #528
   47a4c:	52800022 	mov	w2, #0x1                   	// #1
   47a50:	aa1403e0 	mov	x0, x20
   47a54:	9ba16aa1 	umaddl	x1, w21, w1, x26
   47a58:	97fff7fd 	bl	45a4c <cm_set_context_by_mpidr>
   47a5c:	11000718 	add	w24, w24, #0x1
   47a60:	0b170315 	add	w21, w24, w23
   47a64:	6b19031f 	cmp	w24, w25
   47a68:	54fff9c1 	b.ne	479a0 <psci_init_aff_map+0xdc>  // b.any
   47a6c:	d0000020 	adrp	x0, 4d000 <__STACKS_START__+0xfc0>
   47a70:	91044000 	add	x0, x0, #0x110
   47a74:	8b33cc13 	add	x19, x0, w19, sxtw #3
   47a78:	2a1503f7 	mov	w23, w21
   47a7c:	510006a0 	sub	w0, w21, #0x1
   47a80:	b9000660 	str	w0, [x19, #4]
   47a84:	17ffffbf 	b	47980 <psci_init_aff_map+0xbc>
   47a88:	f0000056 	adrp	x22, 52000 <plat_console_lock>
   47a8c:	d000003a 	adrp	x26, 4d000 <__STACKS_START__+0xfc0>
   47a90:	52800018 	mov	w24, #0x0                   	// #0
   47a94:	910062d6 	add	x22, x22, #0x18
   47a98:	d280051b 	mov	x27, #0x28                  	// #40
   47a9c:	9104c35a 	add	x26, x26, #0x130
   47aa0:	17fffff0 	b	47a60 <psci_init_aff_map+0x19c>

0000000000047aa4 <psci_get_aff_map_node>:
   47aa4:	a9be7bfd 	stp	x29, x30, [sp, #-32]!
   47aa8:	910003fd 	mov	x29, sp
   47aac:	f9000bf3 	str	x19, [sp, #16]
   47ab0:	2a0103f3 	mov	w19, w1
   47ab4:	940005ce 	bl	491ec <mpidr_mask_lower_afflvls>
   47ab8:	2a0003e0 	mov	w0, w0
   47abc:	937d7e61 	sbfiz	x1, x19, #3, #32
   47ac0:	d0000022 	adrp	x2, 4d000 <__STACKS_START__+0xfc0>
   47ac4:	91044042 	add	x2, x2, #0x110
   47ac8:	8b010043 	add	x3, x2, x1
   47acc:	b8616844 	ldr	w4, [x2, x1]
   47ad0:	f0000041 	adrp	x1, 52000 <plat_console_lock>
   47ad4:	91006021 	add	x1, x1, #0x18
   47ad8:	b9400465 	ldr	w5, [x3, #4]
   47adc:	d2800503 	mov	x3, #0x28                  	// #40
   47ae0:	6b0400bf 	cmp	w5, w4
   47ae4:	5400028b 	b.lt	47b34 <psci_get_aff_map_node+0x90>  // b.tstop
   47ae8:	4b0400a2 	sub	w2, w5, w4
   47aec:	0b820482 	add	w2, w4, w2, asr #1
   47af0:	93407c46 	sxtw	x6, w2
   47af4:	9b037cc6 	mul	x6, x6, x3
   47af8:	f8666826 	ldr	x6, [x1, x6]
   47afc:	eb06001f 	cmp	x0, x6
   47b00:	54000062 	b.cs	47b0c <psci_get_aff_map_node+0x68>  // b.hs, b.nlast
   47b04:	51000445 	sub	w5, w2, #0x1
   47b08:	17fffff6 	b	47ae0 <psci_get_aff_map_node+0x3c>
   47b0c:	54000069 	b.ls	47b18 <psci_get_aff_map_node+0x74>  // b.plast
   47b10:	11000444 	add	w4, w2, #0x1
   47b14:	17fffff3 	b	47ae0 <psci_get_aff_map_node+0x3c>
   47b18:	9b237c40 	smull	x0, w2, w3
   47b1c:	7100005f 	cmp	w2, #0x0
   47b20:	8b000020 	add	x0, x1, x0
   47b24:	9a9fa000 	csel	x0, x0, xzr, ge  // ge = tcont
   47b28:	f9400bf3 	ldr	x19, [sp, #16]
   47b2c:	a8c27bfd 	ldp	x29, x30, [sp], #32
   47b30:	d65f03c0 	ret
   47b34:	d2800000 	mov	x0, #0x0                   	// #0
   47b38:	17fffffc 	b	47b28 <psci_get_aff_map_node+0x84>

0000000000047b3c <psci_get_aff_map_nodes>:
   47b3c:	a9bc7bfd 	stp	x29, x30, [sp, #-64]!
   47b40:	910003fd 	mov	x29, sp
   47b44:	a90153f3 	stp	x19, x20, [sp, #16]
   47b48:	93407c33 	sxtw	x19, w1
   47b4c:	a9025bf5 	stp	x21, x22, [sp, #32]
   47b50:	2a0203e1 	mov	w1, w2
   47b54:	a90363f7 	stp	x23, x24, [sp, #48]
   47b58:	2a0203f5 	mov	w21, w2
   47b5c:	aa0003f8 	mov	x24, x0
   47b60:	aa0303f6 	mov	x22, x3
   47b64:	2a1303e0 	mov	w0, w19
   47b68:	97fffd33 	bl	47034 <psci_check_afflvl_range>
   47b6c:	2a0003f4 	mov	w20, w0
   47b70:	35000080 	cbnz	w0, 47b80 <psci_get_aff_map_nodes+0x44>
   47b74:	2a1303f7 	mov	w23, w19
   47b78:	6b15027f 	cmp	w19, w21
   47b7c:	540000ed 	b.le	47b98 <psci_get_aff_map_nodes+0x5c>
   47b80:	2a1403e0 	mov	w0, w20
   47b84:	a94153f3 	ldp	x19, x20, [sp, #16]
   47b88:	a9425bf5 	ldp	x21, x22, [sp, #32]
   47b8c:	a94363f7 	ldp	x23, x24, [sp, #48]
   47b90:	a8c47bfd 	ldp	x29, x30, [sp], #64
   47b94:	d65f03c0 	ret
   47b98:	2a1303e1 	mov	w1, w19
   47b9c:	aa1803e0 	mov	x0, x24
   47ba0:	97ffffc1 	bl	47aa4 <psci_get_aff_map_node>
   47ba4:	b4000120 	cbz	x0, 47bc8 <psci_get_aff_map_nodes+0x8c>
   47ba8:	39402801 	ldrb	w1, [x0, #10]
   47bac:	370000a1 	tbnz	w1, #0, 47bc0 <psci_get_aff_map_nodes+0x84>
   47bb0:	340000d7 	cbz	w23, 47bc8 <psci_get_aff_map_nodes+0x8c>
   47bb4:	f8337adf 	str	xzr, [x22, x19, lsl #3]
   47bb8:	91000673 	add	x19, x19, #0x1
   47bbc:	17ffffee 	b	47b74 <psci_get_aff_map_nodes+0x38>
   47bc0:	f8337ac0 	str	x0, [x22, x19, lsl #3]
   47bc4:	17fffffd 	b	47bb8 <psci_get_aff_map_nodes+0x7c>
   47bc8:	12800034 	mov	w20, #0xfffffffe            	// #-2
   47bcc:	17ffffed 	b	47b80 <psci_get_aff_map_nodes+0x44>

0000000000047bd0 <psci_setup>:
   47bd0:	a9bd7bfd 	stp	x29, x30, [sp, #-48]!
   47bd4:	910003fd 	mov	x29, sp
   47bd8:	a90153f3 	stp	x19, x20, [sp, #16]
   47bdc:	a9025bf5 	stp	x21, x22, [sp, #32]
   47be0:	d53800b5 	mrs	x21, mpidr_el1
   47be4:	d0000034 	adrp	x20, 4d000 <__STACKS_START__+0xfc0>
   47be8:	f907429f 	str	xzr, [x20, #3712]
   47bec:	97fffce7 	bl	46f88 <get_max_afflvl>
   47bf0:	7100081f 	cmp	w0, #0x2
   47bf4:	5400058d 	b.le	47ca4 <psci_setup+0xd4>
   47bf8:	f0000003 	adrp	x3, 4a000 <__func__.2258+0x12>
   47bfc:	91155863 	add	x3, x3, #0x556
   47c00:	52802662 	mov	w2, #0x133                 	// #307
   47c04:	f0000001 	adrp	x1, 4a000 <__func__.2258+0x12>
   47c08:	f0000000 	adrp	x0, 4a000 <__func__.2258+0x12>
   47c0c:	91142421 	add	x1, x1, #0x509
   47c10:	91139400 	add	x0, x0, #0x4e5
   47c14:	94000138 	bl	480f4 <__assert>
   47c18:	2a1603e3 	mov	w3, w22
   47c1c:	510006d6 	sub	w22, w22, #0x1
   47c20:	2a0003e1 	mov	w1, w0
   47c24:	2a1303e2 	mov	w2, w19
   47c28:	d2800000 	mov	x0, #0x0                   	// #0
   47c2c:	97ffff26 	bl	478c4 <psci_init_aff_map>
   47c30:	36ffff56 	tbz	w22, #31, 47c18 <psci_setup+0x48>
   47c34:	7100027f 	cmp	w19, #0x0
   47c38:	d0000020 	adrp	x0, 4d000 <__STACKS_START__+0xfc0>
   47c3c:	5400014d 	b.le	47c64 <psci_setup+0x94>
   47c40:	91044001 	add	x1, x0, #0x110
   47c44:	71000a7f 	cmp	w19, #0x2
   47c48:	b9400c22 	ldr	w2, [x1, #12]
   47c4c:	11000442 	add	w2, w2, #0x1
   47c50:	b9011002 	str	w2, [x0, #272]
   47c54:	54000081 	b.ne	47c64 <psci_setup+0x94>  // b.any
   47c58:	b9401422 	ldr	w2, [x1, #20]
   47c5c:	11000442 	add	w2, w2, #0x1
   47c60:	b9000822 	str	w2, [x1, #8]
   47c64:	92409eb5 	and	x21, x21, #0xffffffffff
   47c68:	52800016 	mov	w22, #0x0                   	// #0
   47c6c:	9260deb5 	and	x21, x21, #0xffffffff00ffffff
   47c70:	d2800301 	mov	x1, #0x18                  	// #24
   47c74:	91044000 	add	x0, x0, #0x110
   47c78:	940004fe 	bl	49070 <flush_dcache_range>
   47c7c:	6b1302df 	cmp	w22, w19
   47c80:	540001ad 	b.le	47cb4 <psci_setup+0xe4>
   47c84:	913a0280 	add	x0, x20, #0xe80
   47c88:	97fff3fe 	bl	44c80 <platform_setup_pm>
   47c8c:	f9474280 	ldr	x0, [x20, #3712]
   47c90:	b50002e0 	cbnz	x0, 47cec <psci_setup+0x11c>
   47c94:	f0000003 	adrp	x3, 4a000 <__func__.2258+0x12>
   47c98:	52802c62 	mov	w2, #0x163                 	// #355
   47c9c:	9115d463 	add	x3, x3, #0x575
   47ca0:	17ffffd9 	b	47c04 <psci_setup+0x34>
   47ca4:	2a0003f3 	mov	w19, w0
   47ca8:	2a0003f6 	mov	w22, w0
   47cac:	52800000 	mov	w0, #0x0                   	// #0
   47cb0:	17ffffe0 	b	47c30 <psci_setup+0x60>
   47cb4:	2a1603e1 	mov	w1, w22
   47cb8:	aa1503e0 	mov	x0, x21
   47cbc:	97ffff7a 	bl	47aa4 <psci_get_aff_map_node>
   47cc0:	b50000a0 	cbnz	x0, 47cd4 <psci_setup+0x104>
   47cc4:	f0000003 	adrp	x3, 4a000 <__func__.2258+0x12>
   47cc8:	52802b62 	mov	w2, #0x15b                 	// #347
   47ccc:	910b1c63 	add	x3, x3, #0x2c7
   47cd0:	17ffffcd 	b	47c04 <psci_setup+0x34>
   47cd4:	39402801 	ldrb	w1, [x0, #10]
   47cd8:	36000061 	tbz	w1, #0, 47ce4 <psci_setup+0x114>
   47cdc:	52800001 	mov	w1, #0x0                   	// #0
   47ce0:	97fffd7e 	bl	472d8 <psci_set_state>
   47ce4:	110006d6 	add	w22, w22, #0x1
   47ce8:	17ffffe5 	b	47c7c <psci_setup+0xac>
   47cec:	52800000 	mov	w0, #0x0                   	// #0
   47cf0:	a94153f3 	ldp	x19, x20, [sp, #16]
   47cf4:	a9425bf5 	ldp	x21, x22, [sp, #32]
   47cf8:	a8c37bfd 	ldp	x29, x30, [sp], #48
   47cfc:	d65f03c0 	ret

0000000000047d00 <psci_system_off>:
   47d00:	a9be7bfd 	stp	x29, x30, [sp, #-32]!
   47d04:	d0000020 	adrp	x0, 4d000 <__STACKS_START__+0xfc0>
   47d08:	910003fd 	mov	x29, sp
   47d0c:	f9474001 	ldr	x1, [x0, #3712]
   47d10:	f9401c21 	ldr	x1, [x1, #56]
   47d14:	f9000bf3 	str	x19, [sp, #16]
   47d18:	b50000a1 	cbnz	x1, 47d2c <psci_system_off+0x2c>
   47d1c:	f0000000 	adrp	x0, 4a000 <__func__.2258+0x12>
   47d20:	91161800 	add	x0, x0, #0x586
   47d24:	94000040 	bl	47e24 <tf_printf>
   47d28:	940004c3 	bl	49034 <do_panic>
   47d2c:	aa0003f3 	mov	x19, x0
   47d30:	97fffe06 	bl	47548 <psci_print_affinity_map>
   47d34:	d0000020 	adrp	x0, 4d000 <__STACKS_START__+0xfc0>
   47d38:	f9474400 	ldr	x0, [x0, #3720]
   47d3c:	b4000080 	cbz	x0, 47d4c <psci_system_off+0x4c>
   47d40:	f9401c00 	ldr	x0, [x0, #56]
   47d44:	b4000040 	cbz	x0, 47d4c <psci_system_off+0x4c>
   47d48:	d63f0000 	blr	x0
   47d4c:	f9474260 	ldr	x0, [x19, #3712]
   47d50:	f9401c00 	ldr	x0, [x0, #56]
   47d54:	d63f0000 	blr	x0

0000000000047d58 <psci_system_reset>:
   47d58:	a9be7bfd 	stp	x29, x30, [sp, #-32]!
   47d5c:	d0000020 	adrp	x0, 4d000 <__STACKS_START__+0xfc0>
   47d60:	910003fd 	mov	x29, sp
   47d64:	f9474001 	ldr	x1, [x0, #3712]
   47d68:	f9402021 	ldr	x1, [x1, #64]
   47d6c:	f9000bf3 	str	x19, [sp, #16]
   47d70:	b50000a1 	cbnz	x1, 47d84 <psci_system_reset+0x2c>
   47d74:	f0000000 	adrp	x0, 4a000 <__func__.2258+0x12>
   47d78:	91170800 	add	x0, x0, #0x5c2
   47d7c:	9400002a 	bl	47e24 <tf_printf>
   47d80:	940004ad 	bl	49034 <do_panic>
   47d84:	aa0003f3 	mov	x19, x0
   47d88:	97fffdf0 	bl	47548 <psci_print_affinity_map>
   47d8c:	d0000020 	adrp	x0, 4d000 <__STACKS_START__+0xfc0>
   47d90:	f9474400 	ldr	x0, [x0, #3720]
   47d94:	b4000080 	cbz	x0, 47da4 <psci_system_reset+0x4c>
   47d98:	f9402000 	ldr	x0, [x0, #64]
   47d9c:	b4000040 	cbz	x0, 47da4 <psci_system_reset+0x4c>
   47da0:	d63f0000 	blr	x0
   47da4:	f9474260 	ldr	x0, [x19, #3712]
   47da8:	f9402000 	ldr	x0, [x0, #64]
   47dac:	d63f0000 	blr	x0

0000000000047db0 <unsigned_num_print>:
   47db0:	a9bc7bfd 	stp	x29, x30, [sp, #-64]!
   47db4:	2a0103e1 	mov	w1, w1
   47db8:	d2800003 	mov	x3, #0x0                   	// #0
   47dbc:	910003fd 	mov	x29, sp
   47dc0:	a90153f3 	stp	x19, x20, [sp, #16]
   47dc4:	9100a3b4 	add	x20, x29, #0x28
   47dc8:	9ac10804 	udiv	x4, x0, x1
   47dcc:	11000473 	add	w19, w3, #0x1
   47dd0:	9b018080 	msub	x0, x4, x1, x0
   47dd4:	12001c02 	and	w2, w0, #0xff
   47dd8:	f100281f 	cmp	x0, #0xa
   47ddc:	11015c45 	add	w5, w2, #0x57
   47de0:	1100c042 	add	w2, w2, #0x30
   47de4:	1a853042 	csel	w2, w2, w5, cc  // cc = lo, ul, last
   47de8:	38236a82 	strb	w2, [x20, x3]
   47dec:	aa0403e0 	mov	x0, x4
   47df0:	91000463 	add	x3, x3, #0x1
   47df4:	b5fffea4 	cbnz	x4, 47dc8 <unsigned_num_print+0x18>
   47df8:	51000673 	sub	w19, w19, #0x1
   47dfc:	93407e73 	sxtw	x19, w19
   47e00:	3100067f 	cmn	w19, #0x1
   47e04:	54000081 	b.ne	47e14 <unsigned_num_print+0x64>  // b.any
   47e08:	a94153f3 	ldp	x19, x20, [sp, #16]
   47e0c:	a8c47bfd 	ldp	x29, x30, [sp], #64
   47e10:	d65f03c0 	ret
   47e14:	38736a80 	ldrb	w0, [x20, x19]
   47e18:	d1000673 	sub	x19, x19, #0x1
   47e1c:	940000de 	bl	48194 <putchar>
   47e20:	17fffff8 	b	47e00 <unsigned_num_print+0x50>

0000000000047e24 <tf_printf>:
   47e24:	a9b77bfd 	stp	x29, x30, [sp, #-144]!
   47e28:	910003fd 	mov	x29, sp
   47e2c:	f90013f5 	str	x21, [sp, #32]
   47e30:	aa0003f5 	mov	x21, x0
   47e34:	910243a0 	add	x0, x29, #0x90
   47e38:	a90153f3 	stp	x19, x20, [sp, #16]
   47e3c:	a90303a0 	stp	x0, x0, [x29, #48]
   47e40:	f0000014 	adrp	x20, 4a000 <__func__.2258+0x12>
   47e44:	910143a0 	add	x0, x29, #0x50
   47e48:	91180294 	add	x20, x20, #0x600
   47e4c:	f90023a0 	str	x0, [x29, #64]
   47e50:	128006e0 	mov	w0, #0xffffffc8            	// #-56
   47e54:	b9004ba0 	str	w0, [x29, #72]
   47e58:	b9004fbf 	str	wzr, [x29, #76]
   47e5c:	a9058ba1 	stp	x1, x2, [x29, #88]
   47e60:	a90693a3 	stp	x3, x4, [x29, #104]
   47e64:	a9079ba5 	stp	x5, x6, [x29, #120]
   47e68:	f90047a7 	str	x7, [x29, #136]
   47e6c:	394002a0 	ldrb	w0, [x21]
   47e70:	350000a0 	cbnz	w0, 47e84 <tf_printf+0x60>
   47e74:	a94153f3 	ldp	x19, x20, [sp, #16]
   47e78:	f94013f5 	ldr	x21, [sp, #32]
   47e7c:	a8c97bfd 	ldp	x29, x30, [sp], #144
   47e80:	d65f03c0 	ret
   47e84:	910006b3 	add	x19, x21, #0x1
   47e88:	7100941f 	cmp	w0, #0x25
   47e8c:	54001261 	b.ne	480d8 <tf_printf+0x2b4>  // b.any
   47e90:	52800002 	mov	w2, #0x0                   	// #0
   47e94:	39400260 	ldrb	w0, [x19]
   47e98:	51019000 	sub	w0, w0, #0x64
   47e9c:	7100581f 	cmp	w0, #0x16
   47ea0:	54fffea8 	b.hi	47e74 <tf_printf+0x50>  // b.pmore
   47ea4:	38604a80 	ldrb	w0, [x20, w0, uxtw]
   47ea8:	10000061 	adr	x1, 47eb4 <tf_printf+0x90>
   47eac:	8b208820 	add	x0, x1, w0, sxtb #2
   47eb0:	d61f0000 	br	x0
   47eb4:	b9404ba1 	ldr	w1, [x29, #72]
   47eb8:	f9401ba0 	ldr	x0, [x29, #48]
   47ebc:	34000262 	cbz	w2, 47f08 <tf_printf+0xe4>
   47ec0:	37f80161 	tbnz	w1, #31, 47eec <tf_printf+0xc8>
   47ec4:	91003c01 	add	x1, x0, #0xf
   47ec8:	927df021 	and	x1, x1, #0xfffffffffffffff8
   47ecc:	f9001ba1 	str	x1, [x29, #48]
   47ed0:	f9400015 	ldr	x21, [x0]
   47ed4:	b6f80355 	tbz	x21, #63, 47f3c <tf_printf+0x118>
   47ed8:	528005a0 	mov	w0, #0x2d                  	// #45
   47edc:	940000ae 	bl	48194 <putchar>
   47ee0:	cb1503e0 	neg	x0, x21
   47ee4:	52800141 	mov	w1, #0xa                   	// #10
   47ee8:	14000036 	b	47fc0 <tf_printf+0x19c>
   47eec:	11002022 	add	w2, w1, #0x8
   47ef0:	b9004ba2 	str	w2, [x29, #72]
   47ef4:	7100005f 	cmp	w2, #0x0
   47ef8:	54fffe6c 	b.gt	47ec4 <tf_printf+0xa0>
   47efc:	f9401fa0 	ldr	x0, [x29, #56]
   47f00:	8b21c000 	add	x0, x0, w1, sxtw
   47f04:	17fffff3 	b	47ed0 <tf_printf+0xac>
   47f08:	37f800c1 	tbnz	w1, #31, 47f20 <tf_printf+0xfc>
   47f0c:	91002c01 	add	x1, x0, #0xb
   47f10:	927df021 	and	x1, x1, #0xfffffffffffffff8
   47f14:	f9001ba1 	str	x1, [x29, #48]
   47f18:	b9800015 	ldrsw	x21, [x0]
   47f1c:	17ffffee 	b	47ed4 <tf_printf+0xb0>
   47f20:	11002022 	add	w2, w1, #0x8
   47f24:	b9004ba2 	str	w2, [x29, #72]
   47f28:	7100005f 	cmp	w2, #0x0
   47f2c:	54ffff0c 	b.gt	47f0c <tf_printf+0xe8>
   47f30:	f9401fa0 	ldr	x0, [x29, #56]
   47f34:	8b21c000 	add	x0, x0, w1, sxtw
   47f38:	17fffff8 	b	47f18 <tf_printf+0xf4>
   47f3c:	aa1503e0 	mov	x0, x21
   47f40:	17ffffe9 	b	47ee4 <tf_printf+0xc0>
   47f44:	b9404ba1 	ldr	w1, [x29, #72]
   47f48:	f9401ba0 	ldr	x0, [x29, #48]
   47f4c:	37f80141 	tbnz	w1, #31, 47f74 <tf_printf+0x150>
   47f50:	91003c01 	add	x1, x0, #0xf
   47f54:	927df021 	and	x1, x1, #0xfffffffffffffff8
   47f58:	f9001ba1 	str	x1, [x29, #48]
   47f5c:	f9400015 	ldr	x21, [x0]
   47f60:	394002a0 	ldrb	w0, [x21]
   47f64:	35000160 	cbnz	w0, 47f90 <tf_printf+0x16c>
   47f68:	91000673 	add	x19, x19, #0x1
   47f6c:	aa1303f5 	mov	x21, x19
   47f70:	17ffffbf 	b	47e6c <tf_printf+0x48>
   47f74:	11002022 	add	w2, w1, #0x8
   47f78:	b9004ba2 	str	w2, [x29, #72]
   47f7c:	7100005f 	cmp	w2, #0x0
   47f80:	54fffe8c 	b.gt	47f50 <tf_printf+0x12c>
   47f84:	f9401fa0 	ldr	x0, [x29, #56]
   47f88:	8b21c000 	add	x0, x0, w1, sxtw
   47f8c:	17fffff4 	b	47f5c <tf_printf+0x138>
   47f90:	910006b5 	add	x21, x21, #0x1
   47f94:	94000080 	bl	48194 <putchar>
   47f98:	17fffff2 	b	47f60 <tf_printf+0x13c>
   47f9c:	b9404ba1 	ldr	w1, [x29, #72]
   47fa0:	f9401ba0 	ldr	x0, [x29, #48]
   47fa4:	34000202 	cbz	w2, 47fe4 <tf_printf+0x1c0>
   47fa8:	37f80101 	tbnz	w1, #31, 47fc8 <tf_printf+0x1a4>
   47fac:	91003c01 	add	x1, x0, #0xf
   47fb0:	927df021 	and	x1, x1, #0xfffffffffffffff8
   47fb4:	f9001ba1 	str	x1, [x29, #48]
   47fb8:	f9400000 	ldr	x0, [x0]
   47fbc:	52800201 	mov	w1, #0x10                  	// #16
   47fc0:	97ffff7c 	bl	47db0 <unsigned_num_print>
   47fc4:	17ffffe9 	b	47f68 <tf_printf+0x144>
   47fc8:	11002022 	add	w2, w1, #0x8
   47fcc:	b9004ba2 	str	w2, [x29, #72]
   47fd0:	7100005f 	cmp	w2, #0x0
   47fd4:	54fffecc 	b.gt	47fac <tf_printf+0x188>
   47fd8:	f9401fa0 	ldr	x0, [x29, #56]
   47fdc:	8b21c000 	add	x0, x0, w1, sxtw
   47fe0:	17fffff6 	b	47fb8 <tf_printf+0x194>
   47fe4:	37f800c1 	tbnz	w1, #31, 47ffc <tf_printf+0x1d8>
   47fe8:	91002c01 	add	x1, x0, #0xb
   47fec:	927df021 	and	x1, x1, #0xfffffffffffffff8
   47ff0:	f9001ba1 	str	x1, [x29, #48]
   47ff4:	b9400000 	ldr	w0, [x0]
   47ff8:	17fffff1 	b	47fbc <tf_printf+0x198>
   47ffc:	11002022 	add	w2, w1, #0x8
   48000:	b9004ba2 	str	w2, [x29, #72]
   48004:	7100005f 	cmp	w2, #0x0
   48008:	54ffff0c 	b.gt	47fe8 <tf_printf+0x1c4>
   4800c:	f9401fa0 	ldr	x0, [x29, #56]
   48010:	8b21c000 	add	x0, x0, w1, sxtw
   48014:	17fffff8 	b	47ff4 <tf_printf+0x1d0>
   48018:	b9404ba1 	ldr	w1, [x29, #72]
   4801c:	f9401ba0 	ldr	x0, [x29, #48]
   48020:	37f800e1 	tbnz	w1, #31, 4803c <tf_printf+0x218>
   48024:	91003c01 	add	x1, x0, #0xf
   48028:	927df021 	and	x1, x1, #0xfffffffffffffff8
   4802c:	f9001ba1 	str	x1, [x29, #48]
   48030:	52800201 	mov	w1, #0x10                  	// #16
   48034:	f9400000 	ldr	x0, [x0]
   48038:	17ffffe2 	b	47fc0 <tf_printf+0x19c>
   4803c:	11002022 	add	w2, w1, #0x8
   48040:	b9004ba2 	str	w2, [x29, #72]
   48044:	7100005f 	cmp	w2, #0x0
   48048:	54fffeec 	b.gt	48024 <tf_printf+0x200>
   4804c:	f9401fa0 	ldr	x0, [x29, #56]
   48050:	8b21c000 	add	x0, x0, w1, sxtw
   48054:	17fffff7 	b	48030 <tf_printf+0x20c>
   48058:	91000673 	add	x19, x19, #0x1
   4805c:	52800022 	mov	w2, #0x1                   	// #1
   48060:	17ffff8d 	b	47e94 <tf_printf+0x70>
   48064:	b9404ba1 	ldr	w1, [x29, #72]
   48068:	f9401ba0 	ldr	x0, [x29, #48]
   4806c:	340001c2 	cbz	w2, 480a4 <tf_printf+0x280>
   48070:	37f800c1 	tbnz	w1, #31, 48088 <tf_printf+0x264>
   48074:	91003c01 	add	x1, x0, #0xf
   48078:	927df021 	and	x1, x1, #0xfffffffffffffff8
   4807c:	f9001ba1 	str	x1, [x29, #48]
   48080:	f9400000 	ldr	x0, [x0]
   48084:	17ffff98 	b	47ee4 <tf_printf+0xc0>
   48088:	11002022 	add	w2, w1, #0x8
   4808c:	b9004ba2 	str	w2, [x29, #72]
   48090:	7100005f 	cmp	w2, #0x0
   48094:	54ffff0c 	b.gt	48074 <tf_printf+0x250>
   48098:	f9401fa0 	ldr	x0, [x29, #56]
   4809c:	8b21c000 	add	x0, x0, w1, sxtw
   480a0:	17fffff8 	b	48080 <tf_printf+0x25c>
   480a4:	37f800c1 	tbnz	w1, #31, 480bc <tf_printf+0x298>
   480a8:	91002c01 	add	x1, x0, #0xb
   480ac:	927df021 	and	x1, x1, #0xfffffffffffffff8
   480b0:	f9001ba1 	str	x1, [x29, #48]
   480b4:	b9400000 	ldr	w0, [x0]
   480b8:	17ffff8b 	b	47ee4 <tf_printf+0xc0>
   480bc:	11002022 	add	w2, w1, #0x8
   480c0:	b9004ba2 	str	w2, [x29, #72]
   480c4:	7100005f 	cmp	w2, #0x0
   480c8:	54ffff0c 	b.gt	480a8 <tf_printf+0x284>
   480cc:	f9401fa0 	ldr	x0, [x29, #56]
   480d0:	8b21c000 	add	x0, x0, w1, sxtw
   480d4:	17fffff8 	b	480b4 <tf_printf+0x290>
   480d8:	7100281f 	cmp	w0, #0xa
   480dc:	54000061 	b.ne	480e8 <tf_printf+0x2c4>  // b.any
   480e0:	528001a0 	mov	w0, #0xd                   	// #13
   480e4:	9400002c 	bl	48194 <putchar>
   480e8:	394002a0 	ldrb	w0, [x21]
   480ec:	9400002a 	bl	48194 <putchar>
   480f0:	17ffff9f 	b	47f6c <tf_printf+0x148>

00000000000480f4 <__assert>:
   480f4:	a9bf7bfd 	stp	x29, x30, [sp, #-16]!
   480f8:	aa0003e1 	mov	x1, x0
   480fc:	d0000000 	adrp	x0, 4a000 <__func__.2258+0x12>
   48100:	91185c00 	add	x0, x0, #0x617
   48104:	910003fd 	mov	x29, sp
   48108:	97ffff47 	bl	47e24 <tf_printf>
   4810c:	14000000 	b	4810c <__assert+0x18>

0000000000048110 <memset>:
   48110:	d2800003 	mov	x3, #0x0                   	// #0
   48114:	eb03005f 	cmp	x2, x3
   48118:	54000041 	b.ne	48120 <memset+0x10>  // b.any
   4811c:	d65f03c0 	ret
   48120:	38236801 	strb	w1, [x0, x3]
   48124:	91000463 	add	x3, x3, #0x1
   48128:	17fffffb 	b	48114 <memset+0x4>

000000000004812c <memcpy>:
   4812c:	d2800003 	mov	x3, #0x0                   	// #0
   48130:	eb03005f 	cmp	x2, x3
   48134:	54000041 	b.ne	4813c <memcpy+0x10>  // b.any
   48138:	d65f03c0 	ret
   4813c:	38636824 	ldrb	w4, [x1, x3]
   48140:	38236804 	strb	w4, [x0, x3]
   48144:	91000463 	add	x3, x3, #0x1
   48148:	17fffffa 	b	48130 <memcpy+0x4>

000000000004814c <memmove>:
   4814c:	cb010006 	sub	x6, x0, x1
   48150:	aa0003e4 	mov	x4, x0
   48154:	eb0200df 	cmp	x6, x2
   48158:	54000043 	b.cc	48160 <memmove+0x14>  // b.lo, b.ul, b.last
   4815c:	17fffff4 	b	4812c <memcpy>
   48160:	8b020003 	add	x3, x0, x2
   48164:	8b020025 	add	x5, x1, x2
   48168:	d1000401 	sub	x1, x0, #0x1
   4816c:	d2800000 	mov	x0, #0x0                   	// #0
   48170:	cb030021 	sub	x1, x1, x3
   48174:	d1000400 	sub	x0, x0, #0x1
   48178:	eb00003f 	cmp	x1, x0
   4817c:	54000061 	b.ne	48188 <memmove+0x3c>  // b.any
   48180:	aa0403e0 	mov	x0, x4
   48184:	d65f03c0 	ret
   48188:	386068a2 	ldrb	w2, [x5, x0]
   4818c:	38206862 	strb	w2, [x3, x0]
   48190:	17fffff9 	b	48174 <memmove+0x28>

0000000000048194 <putchar>:
   48194:	a9be7bfd 	stp	x29, x30, [sp, #-32]!
   48198:	910003fd 	mov	x29, sp
   4819c:	f9000bf3 	str	x19, [sp, #16]
   481a0:	2a0003f3 	mov	w19, w0
   481a4:	12001c00 	and	w0, w0, #0xff
   481a8:	94000189 	bl	487cc <console_putc>
   481ac:	7100001f 	cmp	w0, #0x0
   481b0:	5a9fa260 	csinv	w0, w19, wzr, ge  // ge = tcont
   481b4:	f9400bf3 	ldr	x19, [sp, #16]
   481b8:	a8c27bfd 	ldp	x29, x30, [sp], #32
   481bc:	d65f03c0 	ret

00000000000481c0 <strcmp>:
   481c0:	d2800003 	mov	x3, #0x0                   	// #0
   481c4:	38636802 	ldrb	w2, [x0, x3]
   481c8:	38636824 	ldrb	w4, [x1, x3]
   481cc:	6b04005f 	cmp	w2, w4
   481d0:	54000060 	b.eq	481dc <strcmp+0x1c>  // b.none
   481d4:	4b040040 	sub	w0, w2, w4
   481d8:	d65f03c0 	ret
   481dc:	91000463 	add	x3, x3, #0x1
   481e0:	35ffff22 	cbnz	w2, 481c4 <strcmp+0x4>
   481e4:	52800000 	mov	w0, #0x0                   	// #0
   481e8:	17fffffc 	b	481d8 <strcmp+0x18>

00000000000481ec <init_xlation_table>:
   481ec:	a9ba7bfd 	stp	x29, x30, [sp, #-96]!
   481f0:	7100107f 	cmp	w3, #0x4
   481f4:	910003fd 	mov	x29, sp
   481f8:	a9046bf9 	stp	x25, x26, [sp, #64]
   481fc:	aa0203fa 	mov	x26, x2
   48200:	12800102 	mov	w2, #0xfffffff7            	// #-9
   48204:	a90153f3 	stp	x19, x20, [sp, #16]
   48208:	a9025bf5 	stp	x21, x22, [sp, #32]
   4820c:	52803ff4 	mov	w20, #0x1ff                 	// #511
   48210:	1b027c62 	mul	w2, w3, w2
   48214:	a90363f7 	stp	x23, x24, [sp, #48]
   48218:	a90573fb 	stp	x27, x28, [sp, #80]
   4821c:	52800038 	mov	w24, #0x1                   	// #1
   48220:	11009c42 	add	w2, w2, #0x27
   48224:	1ac22318 	lsl	w24, w24, w2
   48228:	1ac22294 	lsl	w20, w20, w2
   4822c:	54000121 	b.ne	48250 <init_xlation_table+0x64>  // b.any
   48230:	d0000003 	adrp	x3, 4a000 <__func__.2258+0x12>
   48234:	911bf463 	add	x3, x3, #0x6fd
   48238:	528018c2 	mov	w2, #0xc6                  	// #198
   4823c:	d0000001 	adrp	x1, 4a000 <__func__.2258+0x12>
   48240:	d0000000 	adrp	x0, 4a000 <__func__.2258+0x12>
   48244:	911c2021 	add	x1, x1, #0x708
   48248:	9118f400 	add	x0, x0, #0x63d
   4824c:	97ffffaa 	bl	480f4 <__assert>
   48250:	71000c7f 	cmp	w3, #0x3
   48254:	d2800079 	mov	x25, #0x3                   	// #3
   48258:	b0000037 	adrp	x23, 4d000 <__STACKS_START__+0xfc0>
   4825c:	d000003b 	adrp	x27, 4e000 <xlat_tables>
   48260:	d280c09c 	mov	x28, #0x604                 	// #1540
   48264:	2a0303f6 	mov	w22, w3
   48268:	93407e94 	sxtw	x20, w20
   4826c:	9a9f0739 	csinc	x25, x25, xzr, eq  // eq = none
   48270:	912f42f7 	add	x23, x23, #0xbd0
   48274:	9100037b 	add	x27, x27, #0x0
   48278:	f2e0081c 	movk	x28, #0x40, lsl #48
   4827c:	a9408803 	ldp	x3, x2, [x0, #8]
   48280:	8b020062 	add	x2, x3, x2
   48284:	eb01005f 	cmp	x2, x1
   48288:	540001a8 	b.hi	482bc <init_xlation_table+0xd0>  // b.pmore
   4828c:	91008000 	add	x0, x0, #0x20
   48290:	f9400802 	ldr	x2, [x0, #16]
   48294:	b4000062 	cbz	x2, 482a0 <init_xlation_table+0xb4>
   48298:	ea14003f 	tst	x1, x20
   4829c:	54ffff01 	b.ne	4827c <init_xlation_table+0x90>  // b.any
   482a0:	a94153f3 	ldp	x19, x20, [sp, #16]
   482a4:	a9425bf5 	ldp	x21, x22, [sp, #32]
   482a8:	a94363f7 	ldp	x23, x24, [sp, #48]
   482ac:	a9446bf9 	ldp	x25, x26, [sp, #64]
   482b0:	a94573fb 	ldp	x27, x28, [sp, #80]
   482b4:	a8c67bfd 	ldp	x29, x30, [sp], #96
   482b8:	d65f03c0 	ret
   482bc:	8b38c035 	add	x21, x1, w24, sxtw
   482c0:	eb15007f 	cmp	x3, x21
   482c4:	54000842 	b.cs	483cc <init_xlation_table+0x1e0>  // b.hs, b.nlast
   482c8:	eb01007f 	cmp	x3, x1
   482cc:	540002e8 	b.hi	48328 <init_xlation_table+0x13c>  // b.pmore
   482d0:	eb15005f 	cmp	x2, x21
   482d4:	540002a3 	b.cc	48328 <init_xlation_table+0x13c>  // b.lo, b.ul, b.last
   482d8:	b9401802 	ldr	w2, [x0, #24]
   482dc:	aa0003e5 	mov	x5, x0
   482e0:	910080a5 	add	x5, x5, #0x20
   482e4:	f94008a4 	ldr	x4, [x5, #16]
   482e8:	b4000364 	cbz	x4, 48354 <init_xlation_table+0x168>
   482ec:	f94004a7 	ldr	x7, [x5, #8]
   482f0:	eb0702bf 	cmp	x21, x7
   482f4:	54000309 	b.ls	48354 <init_xlation_table+0x168>  // b.plast
   482f8:	8b070084 	add	x4, x4, x7
   482fc:	eb04003f 	cmp	x1, x4
   48300:	54ffff02 	b.cs	482e0 <init_xlation_table+0xf4>  // b.hs, b.nlast
   48304:	b94018a6 	ldr	w6, [x5, #24]
   48308:	0a060046 	and	w6, w2, w6
   4830c:	6b06005f 	cmp	w2, w6
   48310:	54fffe80 	b.eq	482e0 <init_xlation_table+0xf4>  // b.none
   48314:	2a0603e2 	mov	w2, w6
   48318:	eb07003f 	cmp	x1, x7
   4831c:	54000063 	b.cc	48328 <init_xlation_table+0x13c>  // b.lo, b.ul, b.last
   48320:	eb0402bf 	cmp	x21, x4
   48324:	54fffde9 	b.ls	482e0 <init_xlation_table+0xf4>  // b.plast
   48328:	b94002e2 	ldr	w2, [x23]
   4832c:	11000443 	add	w3, w2, #0x1
   48330:	b90002e3 	str	w3, [x23]
   48334:	d3747c42 	ubfiz	x2, x2, #12, #32
   48338:	7100107f 	cmp	w3, #0x4
   4833c:	8b1b0042 	add	x2, x2, x27
   48340:	540003e9 	b.ls	483bc <init_xlation_table+0x1d0>  // b.plast
   48344:	d0000003 	adrp	x3, 4a000 <__func__.2258+0x12>
   48348:	52801ce2 	mov	w2, #0xe7                  	// #231
   4834c:	911c8863 	add	x3, x3, #0x722
   48350:	17ffffbb 	b	4823c <init_xlation_table+0x50>
   48354:	37fffea2 	tbnz	w2, #31, 48328 <init_xlation_table+0x13c>
   48358:	f9400013 	ldr	x19, [x0]
   4835c:	721f0045 	ands	w5, w2, #0x2
   48360:	8b130033 	add	x19, x1, x19
   48364:	cb030273 	sub	x19, x19, x3
   48368:	aa190263 	orr	x3, x19, x25
   4836c:	937d7c53 	sbfiz	x19, x2, #3, #32
   48370:	927b0264 	and	x4, x19, #0x20
   48374:	9a9f17f3 	cset	x19, eq  // eq = none
   48378:	aa131c93 	orr	x19, x4, x19, lsl #7
   4837c:	aa030273 	orr	x19, x19, x3
   48380:	360001a2 	tbz	w2, #0, 483b4 <init_xlation_table+0x1c8>
   48384:	d280e003 	mov	x3, #0x700                 	// #1792
   48388:	b2780a62 	orr	x2, x19, #0x700
   4838c:	f2e00803 	movk	x3, #0x40, lsl #48
   48390:	710000bf 	cmp	w5, #0x0
   48394:	aa030273 	orr	x19, x19, x3
   48398:	9a821273 	csel	x19, x19, x2, ne  // ne = any
   4839c:	b100067f 	cmn	x19, #0x1
   483a0:	54fffc40 	b.eq	48328 <init_xlation_table+0x13c>  // b.none
   483a4:	f9000353 	str	x19, [x26]
   483a8:	aa1503e1 	mov	x1, x21
   483ac:	9100235a 	add	x26, x26, #0x8
   483b0:	17ffffb8 	b	48290 <init_xlation_table+0xa4>
   483b4:	aa1c0273 	orr	x19, x19, x28
   483b8:	17fffff9 	b	4839c <init_xlation_table+0x1b0>
   483bc:	b2400453 	orr	x19, x2, #0x3
   483c0:	110006c3 	add	w3, w22, #0x1
   483c4:	97ffff8a 	bl	481ec <init_xlation_table>
   483c8:	17fffff7 	b	483a4 <init_xlation_table+0x1b8>
   483cc:	d2800013 	mov	x19, #0x0                   	// #0
   483d0:	17fffff5 	b	483a4 <init_xlation_table+0x1b8>

00000000000483d4 <mmap_add_region>:
   483d4:	a9bc7bfd 	stp	x29, x30, [sp, #-64]!
   483d8:	f2402c1f 	tst	x0, #0xfff
   483dc:	910003fd 	mov	x29, sp
   483e0:	a90153f3 	stp	x19, x20, [sp, #16]
   483e4:	a9025bf5 	stp	x21, x22, [sp, #32]
   483e8:	a90363f7 	stp	x23, x24, [sp, #48]
   483ec:	54000120 	b.eq	48410 <mmap_add_region+0x3c>  // b.none
   483f0:	d0000003 	adrp	x3, 4a000 <__func__.2258+0x12>
   483f4:	911cfc63 	add	x3, x3, #0x73f
   483f8:	52800c02 	mov	w2, #0x60                  	// #96
   483fc:	d0000001 	adrp	x1, 4a000 <__func__.2258+0x12>
   48400:	d0000000 	adrp	x0, 4a000 <__func__.2258+0x12>
   48404:	911c2021 	add	x1, x1, #0x708
   48408:	9118b400 	add	x0, x0, #0x62d
   4840c:	97ffff3a 	bl	480f4 <__assert>
   48410:	aa0103f3 	mov	x19, x1
   48414:	f2402c3f 	tst	x1, #0xfff
   48418:	540000a0 	b.eq	4842c <mmap_add_region+0x58>  // b.none
   4841c:	d0000003 	adrp	x3, 4a000 <__func__.2258+0x12>
   48420:	52800c22 	mov	w2, #0x61                  	// #97
   48424:	911d6063 	add	x3, x3, #0x758
   48428:	17fffff5 	b	483fc <mmap_add_region+0x28>
   4842c:	aa0203f6 	mov	x22, x2
   48430:	f2402c5f 	tst	x2, #0xfff
   48434:	540000a0 	b.eq	48448 <mmap_add_region+0x74>  // b.none
   48438:	d0000003 	adrp	x3, 4a000 <__func__.2258+0x12>
   4843c:	52800c42 	mov	w2, #0x62                  	// #98
   48440:	911dc463 	add	x3, x3, #0x771
   48444:	17ffffee 	b	483fc <mmap_add_region+0x28>
   48448:	b4000522 	cbz	x2, 484ec <mmap_add_region+0x118>
   4844c:	b0000035 	adrp	x21, 4d000 <__STACKS_START__+0xfc0>
   48450:	aa0003f7 	mov	x23, x0
   48454:	2a0303f8 	mov	w24, w3
   48458:	9126c2b4 	add	x20, x21, #0x9b0
   4845c:	f9400681 	ldr	x1, [x20, #8]
   48460:	91008280 	add	x0, x20, #0x20
   48464:	eb13003f 	cmp	x1, x19
   48468:	54000062 	b.cs	48474 <mmap_add_region+0xa0>  // b.hs, b.nlast
   4846c:	f85f0001 	ldur	x1, [x0, #-16]
   48470:	b5000181 	cbnz	x1, 484a0 <mmap_add_region+0xcc>
   48474:	9126c2b5 	add	x21, x21, #0x9b0
   48478:	aa1403e1 	mov	x1, x20
   4847c:	910802a2 	add	x2, x21, #0x200
   48480:	cb140042 	sub	x2, x2, x20
   48484:	97ffff32 	bl	4814c <memmove>
   48488:	f9410aa0 	ldr	x0, [x21, #528]
   4848c:	b40000e0 	cbz	x0, 484a8 <mmap_add_region+0xd4>
   48490:	d0000003 	adrp	x3, 4a000 <__func__.2258+0x12>
   48494:	52800de2 	mov	w2, #0x6f                  	// #111
   48498:	911e1c63 	add	x3, x3, #0x787
   4849c:	17ffffd8 	b	483fc <mmap_add_region+0x28>
   484a0:	aa0003f4 	mov	x20, x0
   484a4:	17ffffee 	b	4845c <mmap_add_region+0x88>
   484a8:	b0000021 	adrp	x1, 4d000 <__STACKS_START__+0xfc0>
   484ac:	d10006c0 	sub	x0, x22, #0x1
   484b0:	a9004e97 	stp	x23, x19, [x20]
   484b4:	8b170000 	add	x0, x0, x23
   484b8:	f944d022 	ldr	x2, [x1, #2464]
   484bc:	f9000a96 	str	x22, [x20, #16]
   484c0:	b9001a98 	str	w24, [x20, #24]
   484c4:	eb00005f 	cmp	x2, x0
   484c8:	54000042 	b.cs	484d0 <mmap_add_region+0xfc>  // b.hs, b.nlast
   484cc:	f904d020 	str	x0, [x1, #2464]
   484d0:	b0000020 	adrp	x0, 4d000 <__STACKS_START__+0xfc0>
   484d4:	d1000673 	sub	x19, x19, #0x1
   484d8:	8b160273 	add	x19, x19, x22
   484dc:	f944d401 	ldr	x1, [x0, #2472]
   484e0:	eb13003f 	cmp	x1, x19
   484e4:	54000042 	b.cs	484ec <mmap_add_region+0x118>  // b.hs, b.nlast
   484e8:	f904d413 	str	x19, [x0, #2472]
   484ec:	a94153f3 	ldp	x19, x20, [sp, #16]
   484f0:	a9425bf5 	ldp	x21, x22, [sp, #32]
   484f4:	a94363f7 	ldp	x23, x24, [sp, #48]
   484f8:	a8c47bfd 	ldp	x29, x30, [sp], #64
   484fc:	d65f03c0 	ret

0000000000048500 <mmap_add>:
   48500:	a9be7bfd 	stp	x29, x30, [sp, #-32]!
   48504:	910003fd 	mov	x29, sp
   48508:	f9000bf3 	str	x19, [sp, #16]
   4850c:	aa0003f3 	mov	x19, x0
   48510:	f9400a62 	ldr	x2, [x19, #16]
   48514:	b5000082 	cbnz	x2, 48524 <mmap_add+0x24>
   48518:	f9400bf3 	ldr	x19, [sp, #16]
   4851c:	a8c27bfd 	ldp	x29, x30, [sp], #32
   48520:	d65f03c0 	ret
   48524:	b9401a63 	ldr	w3, [x19, #24]
   48528:	f9400661 	ldr	x1, [x19, #8]
   4852c:	f8420660 	ldr	x0, [x19], #32
   48530:	97ffffa9 	bl	483d4 <mmap_add_region>
   48534:	17fffff7 	b	48510 <mmap_add+0x10>

0000000000048538 <init_xlat_tables>:
   48538:	a9bf7bfd 	stp	x29, x30, [sp, #-16]!
   4853c:	52800023 	mov	w3, #0x1                   	// #1
   48540:	b0000022 	adrp	x2, 4d000 <__STACKS_START__+0xfc0>
   48544:	d2800001 	mov	x1, #0x0                   	// #0
   48548:	910003fd 	mov	x29, sp
   4854c:	91260042 	add	x2, x2, #0x980
   48550:	b0000020 	adrp	x0, 4d000 <__STACKS_START__+0xfc0>
   48554:	9126c000 	add	x0, x0, #0x9b0
   48558:	97ffff25 	bl	481ec <init_xlation_table>
   4855c:	b0000020 	adrp	x0, 4d000 <__STACKS_START__+0xfc0>
   48560:	f944d000 	ldr	x0, [x0, #2464]
   48564:	f2503c1f 	tst	x0, #0xffff000000000000
   48568:	54000120 	b.eq	4858c <init_xlat_tables+0x54>  // b.none
   4856c:	d0000003 	adrp	x3, 4a000 <__func__.2258+0x12>
   48570:	d0000001 	adrp	x1, 4a000 <__func__.2258+0x12>
   48574:	d0000000 	adrp	x0, 4a000 <__func__.2258+0x12>
   48578:	911afc63 	add	x3, x3, #0x6bf
   4857c:	911c2021 	add	x1, x1, #0x708
   48580:	91194000 	add	x0, x0, #0x650
   48584:	52801f62 	mov	w2, #0xfb                  	// #251
   48588:	97fffedb 	bl	480f4 <__assert>
   4858c:	f2540c1f 	tst	x0, #0xf00000000000
   48590:	54000301 	b.ne	485f0 <init_xlat_tables+0xb8>  // b.any
   48594:	f256041f 	tst	x0, #0xc0000000000
   48598:	54000301 	b.ne	485f8 <init_xlat_tables+0xc0>  // b.any
   4859c:	f258041f 	tst	x0, #0x30000000000
   485a0:	54000301 	b.ne	48600 <init_xlat_tables+0xc8>  // b.any
   485a4:	f25c0c1f 	tst	x0, #0xf000000000
   485a8:	54000301 	b.ne	48608 <init_xlat_tables+0xd0>  // b.any
   485ac:	f2600c1f 	tst	x0, #0xf00000000
   485b0:	1a9f07e0 	cset	w0, ne  // ne = any
   485b4:	b0000021 	adrp	x1, 4d000 <__STACKS_START__+0xfc0>
   485b8:	f905ec20 	str	x0, [x1, #3032]
   485bc:	b0000020 	adrp	x0, 4d000 <__STACKS_START__+0xfc0>
   485c0:	f944d401 	ldr	x1, [x0, #2472]
   485c4:	b2407fe0 	mov	x0, #0xffffffff            	// #4294967295
   485c8:	eb00003f 	cmp	x1, x0
   485cc:	54000229 	b.ls	48610 <init_xlat_tables+0xd8>  // b.plast
   485d0:	d0000003 	adrp	x3, 4a000 <__func__.2258+0x12>
   485d4:	d0000001 	adrp	x1, 4a000 <__func__.2258+0x12>
   485d8:	d0000000 	adrp	x0, 4a000 <__func__.2258+0x12>
   485dc:	911b9063 	add	x3, x3, #0x6e4
   485e0:	52802322 	mov	w2, #0x119                 	// #281
   485e4:	911c2021 	add	x1, x1, #0x708
   485e8:	9119b400 	add	x0, x0, #0x66d
   485ec:	17ffffe7 	b	48588 <init_xlat_tables+0x50>
   485f0:	d28000a0 	mov	x0, #0x5                   	// #5
   485f4:	17fffff0 	b	485b4 <init_xlat_tables+0x7c>
   485f8:	d2800080 	mov	x0, #0x4                   	// #4
   485fc:	17ffffee 	b	485b4 <init_xlat_tables+0x7c>
   48600:	d2800060 	mov	x0, #0x3                   	// #3
   48604:	17ffffec 	b	485b4 <init_xlat_tables+0x7c>
   48608:	d2800040 	mov	x0, #0x2                   	// #2
   4860c:	17ffffea 	b	485b4 <init_xlat_tables+0x7c>
   48610:	a8c17bfd 	ldp	x29, x30, [sp], #16
   48614:	d65f03c0 	ret

0000000000048618 <enable_mmu_el3>:
   48618:	a9bf7bfd 	stp	x29, x30, [sp, #-16]!
   4861c:	910003fd 	mov	x29, sp
   48620:	d5384241 	mrs	x1, currentel
   48624:	d3420c21 	ubfx	x1, x1, #2, #2
   48628:	f1000c3f 	cmp	x1, #0x3
   4862c:	54000120 	b.eq	48650 <enable_mmu_el3+0x38>  // b.none
   48630:	d0000003 	adrp	x3, 4a000 <__func__.2258+0x12>
   48634:	911a3463 	add	x3, x3, #0x68d
   48638:	d0000001 	adrp	x1, 4a000 <__func__.2258+0x12>
   4863c:	d0000000 	adrp	x0, 4a000 <__func__.2258+0x12>
   48640:	52802be2 	mov	w2, #0x15f                 	// #351
   48644:	911c2021 	add	x1, x1, #0x708
   48648:	9119f800 	add	x0, x0, #0x67e
   4864c:	97fffeaa 	bl	480f4 <__assert>
   48650:	d53e1001 	mrs	x1, sctlr_el3
   48654:	36000081 	tbz	w1, #0, 48664 <enable_mmu_el3+0x4c>
   48658:	d0000003 	adrp	x3, 4a000 <__func__.2258+0x12>
   4865c:	911a6463 	add	x3, x3, #0x699
   48660:	17fffff6 	b	48638 <enable_mmu_el3+0x20>
   48664:	d2809fe1 	mov	x1, #0x4ff                 	// #1279
   48668:	d51ea201 	msr	mair_el3, x1
   4866c:	d50e871f 	tlbi	alle3
   48670:	b0000021 	adrp	x1, 4d000 <__STACKS_START__+0xfc0>
   48674:	d286a402 	mov	x2, #0x3520                	// #13600
   48678:	f2b01002 	movk	x2, #0x8080, lsl #16
   4867c:	f945ec21 	ldr	x1, [x1, #3032]
   48680:	aa014041 	orr	x1, x2, x1, lsl #16
   48684:	d51e2041 	msr	tcr_el3, x1
   48688:	b0000021 	adrp	x1, 4d000 <__STACKS_START__+0xfc0>
   4868c:	91260021 	add	x1, x1, #0x980
   48690:	d51e2001 	msr	ttbr0_el3, x1
   48694:	d5033f9f 	dsb	sy
   48698:	d5033fdf 	isb
   4869c:	d53e1003 	mrs	x3, sctlr_el3
   486a0:	52800021 	mov	w1, #0x1                   	// #1
   486a4:	121d7862 	and	w2, w3, #0xfffffffb
   486a8:	72a00101 	movk	w1, #0x8, lsl #16
   486ac:	2a010042 	orr	w2, w2, w1
   486b0:	11001021 	add	w1, w1, #0x4
   486b4:	f240001f 	tst	x0, #0x1
   486b8:	2a030021 	orr	w1, w1, w3
   486bc:	1a820020 	csel	w0, w1, w2, eq  // eq = none
   486c0:	d51e1000 	msr	sctlr_el3, x0
   486c4:	d5033fdf 	isb
   486c8:	a8c17bfd 	ldp	x29, x30, [sp], #16
   486cc:	d65f03c0 	ret

00000000000486d0 <bl31_plat_enable_mmu>:
   486d0:	17ffffd2 	b	48618 <enable_mmu_el3>

00000000000486d4 <sunxi_serial_init>:
   486d4:	d2805b02 	mov	x2, #0x2d8                 	// #728
   486d8:	11004004 	add	w4, w0, #0x10
   486dc:	f2a03842 	movk	x2, #0x1c2, lsl #16
   486e0:	528e1403 	mov	w3, #0x70a0                	// #28832
   486e4:	52800021 	mov	w1, #0x1                   	// #1
   486e8:	0b030000 	add	w0, w0, w3
   486ec:	b9400043 	ldr	w3, [x2]
   486f0:	1ac42021 	lsl	w1, w1, w4
   486f4:	d2800d84 	mov	x4, #0x6c                  	// #108
   486f8:	53165400 	lsl	w0, w0, #10
   486fc:	f2a03844 	movk	x4, #0x1c2, lsl #16
   48700:	0a210063 	bic	w3, w3, w1
   48704:	b9000043 	str	w3, [x2]
   48708:	93407c00 	sxtw	x0, w0
   4870c:	b9400083 	ldr	w3, [x4]
   48710:	2a030023 	orr	w3, w1, w3
   48714:	b9000083 	str	w3, [x4]
   48718:	b9400043 	ldr	w3, [x2]
   4871c:	2a030021 	orr	w1, w1, w3
   48720:	b9000041 	str	w1, [x2]
   48724:	b0000021 	adrp	x1, 4d000 <__STACKS_START__+0xfc0>
   48728:	52800062 	mov	w2, #0x3                   	// #3
   4872c:	f9074820 	str	x0, [x1, #3728]
   48730:	b9001002 	str	w2, [x0, #16]
   48734:	b9400c01 	ldr	w1, [x0, #12]
   48738:	32190021 	orr	w1, w1, #0x80
   4873c:	b9000c01 	str	w1, [x0, #12]
   48740:	b900041f 	str	wzr, [x0, #4]
   48744:	528001a1 	mov	w1, #0xd                   	// #13
   48748:	b9000001 	str	w1, [x0]
   4874c:	b9400c01 	ldr	w1, [x0, #12]
   48750:	12187821 	and	w1, w1, #0xffffff7f
   48754:	b9000c01 	str	w1, [x0, #12]
   48758:	b9000c02 	str	w2, [x0, #12]
   4875c:	528000e1 	mov	w1, #0x7                   	// #7
   48760:	b9000801 	str	w1, [x0, #8]
   48764:	90000020 	adrp	x0, 4c000 <__RO_END__>
   48768:	b900041f 	str	wzr, [x0, #4]
   4876c:	d65f03c0 	ret

0000000000048770 <sunxi_serial_putc>:
   48770:	90000021 	adrp	x1, 4c000 <__RO_END__>
   48774:	12001c00 	and	w0, w0, #0xff
   48778:	b9400421 	ldr	w1, [x1, #4]
   4877c:	350000e1 	cbnz	w1, 48798 <sunxi_serial_putc+0x28>
   48780:	b0000021 	adrp	x1, 4d000 <__STACKS_START__+0xfc0>
   48784:	f9474821 	ldr	x1, [x1, #3728]
   48788:	91005023 	add	x3, x1, #0x14
   4878c:	b9400062 	ldr	w2, [x3]
   48790:	3637ffe2 	tbz	w2, #6, 4878c <sunxi_serial_putc+0x1c>
   48794:	b9000020 	str	w0, [x1]
   48798:	d65f03c0 	ret

000000000004879c <console_init>:
   4879c:	a9bf7bfd 	stp	x29, x30, [sp, #-16]!
   487a0:	52800000 	mov	w0, #0x0                   	// #0
   487a4:	910003fd 	mov	x29, sp
   487a8:	97ffffcb 	bl	486d4 <sunxi_serial_init>
   487ac:	52800000 	mov	w0, #0x0                   	// #0
   487b0:	a8c17bfd 	ldp	x29, x30, [sp], #16
   487b4:	d65f03c0 	ret

00000000000487b8 <console_exit>:
   487b8:	90000020 	adrp	x0, 4c000 <__RO_END__>
   487bc:	52800021 	mov	w1, #0x1                   	// #1
   487c0:	b9000401 	str	w1, [x0, #4]
   487c4:	52800000 	mov	w0, #0x0                   	// #0
   487c8:	d65f03c0 	ret

00000000000487cc <console_putc>:
   487cc:	a9bf7bfd 	stp	x29, x30, [sp, #-16]!
   487d0:	910003fd 	mov	x29, sp
   487d4:	97ffffe7 	bl	48770 <sunxi_serial_putc>
   487d8:	52800000 	mov	w0, #0x0                   	// #0
   487dc:	a8c17bfd 	ldp	x29, x30, [sp], #16
   487e0:	d65f03c0 	ret

00000000000487e4 <cortex_a53_disable_dcache>:
   487e4:	d53e1001 	mrs	x1, sctlr_el3
   487e8:	927df821 	and	x1, x1, #0xfffffffffffffffb
   487ec:	d51e1001 	msr	sctlr_el3, x1
   487f0:	d5033fdf 	isb
   487f4:	d65f03c0 	ret

00000000000487f8 <cortex_a53_disable_smp>:
   487f8:	d539f220 	mrs	x0, s3_1_c15_c2_1
   487fc:	9279f800 	and	x0, x0, #0xffffffffffffffbf
   48800:	d519f220 	msr	s3_1_c15_c2_1, x0
   48804:	d5033fdf 	isb
   48808:	d5033f9f 	dsb	sy
   4880c:	d65f03c0 	ret

0000000000048810 <cortex_a53_core_pwr_dwn>:
   48810:	aa1e03f2 	mov	x18, x30
   48814:	97fffff4 	bl	487e4 <cortex_a53_disable_dcache>
   48818:	d2800020 	mov	x0, #0x1                   	// #1
   4881c:	94000267 	bl	491b8 <dcsw_op_louis>
   48820:	aa1203fe 	mov	x30, x18
   48824:	17fffff5 	b	487f8 <cortex_a53_disable_smp>

0000000000048828 <cortex_a53_cluster_pwr_dwn>:
   48828:	aa1e03f2 	mov	x18, x30
   4882c:	97ffffee 	bl	487e4 <cortex_a53_disable_dcache>
   48830:	9400028a 	bl	49258 <plat_disable_acp>
   48834:	d2800020 	mov	x0, #0x1                   	// #1
   48838:	94000264 	bl	491c8 <dcsw_op_all>
   4883c:	aa1203fe 	mov	x30, x18
   48840:	17ffffee 	b	487f8 <cortex_a53_disable_smp>

0000000000048844 <cortex_a53_cpu_reg_dump>:
   48844:	5000faa6 	adr	x6, 4a79a <cortex_a53_regs>
   48848:	d539f228 	mrs	x8, s3_1_c15_c2_1
   4884c:	d65f03c0 	ret

0000000000048850 <platform_get_stack>:
   48850:	aa1e03ea 	mov	x10, x30
   48854:	9400027d 	bl	49248 <platform_get_core_pos>
   48858:	58000082 	ldr	x2, 48868 <platform_get_stack+0x18>
   4885c:	d2808001 	mov	x1, #0x400                 	// #1024
   48860:	9b010800 	madd	x0, x0, x1, x2
   48864:	d65f0140 	ret	x10
   48868:	0004c440 	.word	0x0004c440
   4886c:	00000000 	.word	0x00000000

0000000000048870 <platform_set_stack>:
   48870:	aa1e03e9 	mov	x9, x30
   48874:	97fffff7 	bl	48850 <platform_get_stack>
   48878:	9100001f 	mov	sp, x0
   4887c:	d65f0120 	ret	x9

0000000000048880 <platform_smp_init>:
   48880:	d53e1020 	mrs	x0, actlr_el3
   48884:	b27f0000 	orr	x0, x0, #0x2
   48888:	d51e1020 	msr	actlr_el3, x0
   4888c:	d53c1020 	mrs	x0, actlr_el2
   48890:	b27f0000 	orr	x0, x0, #0x2
   48894:	d51c1020 	msr	actlr_el2, x0
   48898:	d539f220 	mrs	x0, s3_1_c15_c2_1
   4889c:	b27a0000 	orr	x0, x0, #0x40
   488a0:	d519f220 	msr	s3_1_c15_c2_1, x0
   488a4:	d2800000 	mov	x0, #0x0                   	// #0
   488a8:	d51ce060 	msr	cntvoff_el2, x0
   488ac:	d65f03c0 	ret

00000000000488b0 <plat_crash_console_init>:
   488b0:	52800020 	mov	w0, #0x1                   	// #1
   488b4:	d65f03c0 	ret

00000000000488b8 <el1_sysregs_context_restore>:
   488b8:	a9402809 	ldp	x9, x10, [x0]
   488bc:	d5184009 	msr	spsr_el1, x9
   488c0:	d518402a 	msr	elr_el1, x10
   488c4:	a941300b 	ldp	x11, x12, [x0, #16]
   488c8:	d51c432b 	msr	spsr_abt, x11
   488cc:	d51c434c 	msr	spsr_und, x12
   488d0:	a942380d 	ldp	x13, x14, [x0, #32]
   488d4:	d51c430d 	msr	spsr_irq, x13
   488d8:	d51c436e 	msr	spsr_fiq, x14
   488dc:	a943400f 	ldp	x15, x16, [x0, #48]
   488e0:	d518100f 	msr	sctlr_el1, x15
   488e4:	d5181030 	msr	actlr_el1, x16
   488e8:	a9442411 	ldp	x17, x9, [x0, #64]
   488ec:	d5181051 	msr	cpacr_el1, x17
   488f0:	d51a0009 	msr	csselr_el1, x9
   488f4:	a9452c0a 	ldp	x10, x11, [x0, #80]
   488f8:	d51c410a 	msr	sp_el1, x10
   488fc:	d518520b 	msr	esr_el1, x11
   48900:	a946340c 	ldp	x12, x13, [x0, #96]
   48904:	d518200c 	msr	ttbr0_el1, x12
   48908:	d518202d 	msr	ttbr1_el1, x13
   4890c:	a9473c0e 	ldp	x14, x15, [x0, #112]
   48910:	d518a20e 	msr	mair_el1, x14
   48914:	d518a30f 	msr	amair_el1, x15
   48918:	a9484410 	ldp	x16, x17, [x0, #128]
   4891c:	d5182050 	msr	tcr_el1, x16
   48920:	d518d091 	msr	tpidr_el1, x17
   48924:	a9492809 	ldp	x9, x10, [x0, #144]
   48928:	d51bd049 	msr	tpidr_el0, x9
   4892c:	d51bd06a 	msr	tpidrro_el0, x10
   48930:	a94a300b 	ldp	x11, x12, [x0, #160]
   48934:	d51c300b 	msr	dacr32_el2, x11
   48938:	d51c502c 	msr	ifsr32_el2, x12
   4893c:	a94b380d 	ldp	x13, x14, [x0, #176]
   48940:	d518740d 	msr	par_el1, x13
   48944:	d518600e 	msr	far_el1, x14
   48948:	a94c400f 	ldp	x15, x16, [x0, #192]
   4894c:	d518510f 	msr	afsr0_el1, x15
   48950:	d5185130 	msr	afsr1_el1, x16
   48954:	a94d2411 	ldp	x17, x9, [x0, #208]
   48958:	d518d031 	msr	contextidr_el1, x17
   4895c:	d518c009 	msr	vbar_el1, x9
   48960:	f940700f 	ldr	x15, [x0, #224]
   48964:	d51c530f 	msr	fpexc32_el2, x15
   48968:	d65f03c0 	ret

000000000004896c <init_cpu_data_ptr>:
   4896c:	aa1e03ea 	mov	x10, x30
   48970:	d53800a0 	mrs	x0, mpidr_el1
   48974:	94000003 	bl	48980 <_cpu_data_by_mpidr>
   48978:	d51ed040 	msr	tpidr_el3, x0
   4897c:	d65f0140 	ret	x10

0000000000048980 <_cpu_data_by_mpidr>:
   48980:	aa1e03e9 	mov	x9, x30
   48984:	94000231 	bl	49248 <platform_get_core_pos>
   48988:	aa0903fe 	mov	x30, x9
   4898c:	14000001 	b	48990 <_cpu_data_by_index>

0000000000048990 <_cpu_data_by_index>:
   48990:	10029381 	adr	x1, 4dc00 <percpu_data>
   48994:	8b001c20 	add	x0, x1, x0, lsl #7
   48998:	d65f03c0 	ret

000000000004899c <smc_handler>:
   4899c:	37f00620 	tbnz	w0, #30, 48a60 <smc_prohibited>
   489a0:	a90427e8 	stp	x8, x9, [sp, #64]
   489a4:	a9052fea 	stp	x10, x11, [sp, #80]
   489a8:	a90637ec 	stp	x12, x13, [sp, #96]
   489ac:	a9073fee 	stp	x14, x15, [sp, #112]
   489b0:	a90847f0 	stp	x16, x17, [sp, #128]

00000000000489b4 <smc_handler64>:
   489b4:	a90217e4 	stp	x4, x5, [sp, #32]
   489b8:	a9031fe6 	stp	x6, x7, [sp, #48]
   489bc:	a9094ff2 	stp	x18, x19, [sp, #144]
   489c0:	a90a57f4 	stp	x20, x21, [sp, #160]
   489c4:	a90b5ff6 	stp	x22, x23, [sp, #176]
   489c8:	a90c67f8 	stp	x24, x25, [sp, #192]
   489cc:	a90d6ffa 	stp	x26, x27, [sp, #208]
   489d0:	a90e77fc 	stp	x28, x29, [sp, #224]
   489d4:	d5384112 	mrs	x18, sp_el0
   489d8:	f9007ff2 	str	x18, [sp, #248]
   489dc:	aa1f03e5 	mov	x5, xzr
   489e0:	910003e6 	mov	x6, sp
   489e4:	d3587410 	ubfx	x16, x0, #24, #6
   489e8:	d35f7c0f 	ubfx	x15, x0, #31, #1
   489ec:	aa0f1a10 	orr	x16, x16, x15, lsl #6
   489f0:	10010b0b 	adr	x11, 4ab50 <__RT_SVC_DESCS_START__+0x18>
   489f4:	1002a06e 	adr	x14, 4de00 <rt_svc_descs_indices>
   489f8:	387069cf 	ldrb	w15, [x14, x16]
   489fc:	f94084cc 	ldr	x12, [x6, #264]
   48a00:	373802cf 	tbnz	w15, #7, 48a58 <smc_unknown>
   48a04:	d50040bf 	msr	spsel, #0x0
   48a08:	531b69ea 	lsl	w10, w15, #5
   48a0c:	f86a496f 	ldr	x15, [x11, w10, uxtw]
   48a10:	d53e4010 	mrs	x16, spsr_el3
   48a14:	d53e4031 	mrs	x17, elr_el3
   48a18:	d53e1112 	mrs	x18, scr_el3
   48a1c:	a91144d0 	stp	x16, x17, [x6, #272]
   48a20:	f90080d2 	str	x18, [x6, #256]
   48a24:	b3400247 	bfxil	x7, x18, #0, #1
   48a28:	9100019f 	mov	sp, x12
   48a2c:	b400020f 	cbz	x15, 48a6c <rt_svc_fw_critical_error>
   48a30:	d63f01e0 	blr	x15

0000000000048a34 <el3_exit>:
   48a34:	910003f1 	mov	x17, sp
   48a38:	d50041bf 	msr	spsel, #0x1
   48a3c:	f90087f1 	str	x17, [sp, #264]
   48a40:	f94083f2 	ldr	x18, [sp, #256]
   48a44:	a95147f0 	ldp	x16, x17, [sp, #272]
   48a48:	d51e1112 	msr	scr_el3, x18
   48a4c:	d51e4010 	msr	spsr_el3, x16
   48a50:	d51e4031 	msr	elr_el3, x17
   48a54:	1400001a 	b	48abc <restore_gp_registers_eret>

0000000000048a58 <smc_unknown>:
   48a58:	12800000 	mov	w0, #0xffffffff            	// #-1
   48a5c:	1400001a 	b	48ac4 <restore_gp_registers_callee_eret>

0000000000048a60 <smc_prohibited>:
   48a60:	f9407bfe 	ldr	x30, [sp, #240]
   48a64:	12800000 	mov	w0, #0xffffffff            	// #-1
   48a68:	d69f03e0 	eret

0000000000048a6c <rt_svc_fw_critical_error>:
